
Debug/bin/freertos_test.elf:     file format elf32-littlearm


Disassembly of section .text:

08000000 <g_pfnVectors>:
 8000000:	ac 16 00 20 85 09 00 08 f1 09 00 08 f1 09 00 08     ... ............
 8000010:	f1 09 00 08 f1 09 00 08 f1 09 00 08 00 00 00 00     ................
	...
 800002c:	b9 28 00 08 f1 09 00 08 00 00 00 00 bd 29 00 08     .(...........)..
 800003c:	f9 29 00 08 f1 09 00 08 f1 09 00 08 f1 09 00 08     .)..............
 800004c:	f1 09 00 08 f1 09 00 08 f1 09 00 08 f1 09 00 08     ................
 800005c:	f1 09 00 08 f1 09 00 08 2d 32 00 08 f1 09 00 08     ........-2......
 800006c:	f1 09 00 08 f1 09 00 08 f1 09 00 08 f1 09 00 08     ................
 800007c:	f1 09 00 08 f1 09 00 08 f1 09 00 08 f1 09 00 08     ................
	...
 800009c:	f1 09 00 08 f1 09 00 08 f1 09 00 08 f1 09 00 08     ................
 80000ac:	f1 09 00 08 91 2a 00 08 f1 09 00 08 f1 09 00 08     .....*..........
 80000bc:	f1 09 00 08 f1 09 00 08 f1 09 00 08 f1 09 00 08     ................
 80000cc:	f1 09 00 08 f1 09 00 08 f9 09 00 08 f1 09 00 08     ................
 80000dc:	f1 09 00 08 f1 09 00 08 f1 09 00 08 f1 09 00 08     ................
	...
 8000118:	1d 2f 00 08 f1 09 00 08 5f f8 08 f1                 ./......_...

08000124 <TIM_TimeBaseInit>:
 8000124:	b480      	push	{r7}
 8000126:	b085      	sub	sp, #20
 8000128:	af00      	add	r7, sp, #0
 800012a:	6078      	str	r0, [r7, #4]
 800012c:	6039      	str	r1, [r7, #0]
 800012e:	f04f 0300 	mov.w	r3, #0
 8000132:	81fb      	strh	r3, [r7, #14]
 8000134:	687b      	ldr	r3, [r7, #4]
 8000136:	881b      	ldrh	r3, [r3, #0]
 8000138:	81fb      	strh	r3, [r7, #14]
 800013a:	687a      	ldr	r2, [r7, #4]
 800013c:	f44f 5330 	mov.w	r3, #11264	; 0x2c00
 8000140:	f2c4 0301 	movt	r3, #16385	; 0x4001
 8000144:	429a      	cmp	r2, r3
 8000146:	d01f      	beq.n	8000188 <TIM_TimeBaseInit+0x64>
 8000148:	687a      	ldr	r2, [r7, #4]
 800014a:	f44f 5350 	mov.w	r3, #13312	; 0x3400
 800014e:	f2c4 0301 	movt	r3, #16385	; 0x4001
 8000152:	429a      	cmp	r2, r3
 8000154:	d018      	beq.n	8000188 <TIM_TimeBaseInit+0x64>
 8000156:	687b      	ldr	r3, [r7, #4]
 8000158:	f1b3 4f80 	cmp.w	r3, #1073741824	; 0x40000000
 800015c:	d014      	beq.n	8000188 <TIM_TimeBaseInit+0x64>
 800015e:	687a      	ldr	r2, [r7, #4]
 8000160:	f44f 6380 	mov.w	r3, #1024	; 0x400
 8000164:	f2c4 0300 	movt	r3, #16384	; 0x4000
 8000168:	429a      	cmp	r2, r3
 800016a:	d00d      	beq.n	8000188 <TIM_TimeBaseInit+0x64>
 800016c:	687a      	ldr	r2, [r7, #4]
 800016e:	f44f 6300 	mov.w	r3, #2048	; 0x800
 8000172:	f2c4 0300 	movt	r3, #16384	; 0x4000
 8000176:	429a      	cmp	r2, r3
 8000178:	d006      	beq.n	8000188 <TIM_TimeBaseInit+0x64>
 800017a:	687a      	ldr	r2, [r7, #4]
 800017c:	f44f 6340 	mov.w	r3, #3072	; 0xc00
 8000180:	f2c4 0300 	movt	r3, #16384	; 0x4000
 8000184:	429a      	cmp	r2, r3
 8000186:	d109      	bne.n	800019c <TIM_TimeBaseInit+0x78>
 8000188:	89fb      	ldrh	r3, [r7, #14]
 800018a:	f023 0370 	bic.w	r3, r3, #112	; 0x70
 800018e:	81fb      	strh	r3, [r7, #14]
 8000190:	683b      	ldr	r3, [r7, #0]
 8000192:	885a      	ldrh	r2, [r3, #2]
 8000194:	89fb      	ldrh	r3, [r7, #14]
 8000196:	ea42 0303 	orr.w	r3, r2, r3
 800019a:	81fb      	strh	r3, [r7, #14]
 800019c:	687a      	ldr	r2, [r7, #4]
 800019e:	f44f 5380 	mov.w	r3, #4096	; 0x1000
 80001a2:	f2c4 0300 	movt	r3, #16384	; 0x4000
 80001a6:	429a      	cmp	r2, r3
 80001a8:	d010      	beq.n	80001cc <TIM_TimeBaseInit+0xa8>
 80001aa:	687a      	ldr	r2, [r7, #4]
 80001ac:	f44f 53a0 	mov.w	r3, #5120	; 0x1400
 80001b0:	f2c4 0300 	movt	r3, #16384	; 0x4000
 80001b4:	429a      	cmp	r2, r3
 80001b6:	d009      	beq.n	80001cc <TIM_TimeBaseInit+0xa8>
 80001b8:	89fb      	ldrh	r3, [r7, #14]
 80001ba:	f423 7340 	bic.w	r3, r3, #768	; 0x300
 80001be:	81fb      	strh	r3, [r7, #14]
 80001c0:	683b      	ldr	r3, [r7, #0]
 80001c2:	88da      	ldrh	r2, [r3, #6]
 80001c4:	89fb      	ldrh	r3, [r7, #14]
 80001c6:	ea42 0303 	orr.w	r3, r2, r3
 80001ca:	81fb      	strh	r3, [r7, #14]
 80001cc:	687b      	ldr	r3, [r7, #4]
 80001ce:	89fa      	ldrh	r2, [r7, #14]
 80001d0:	801a      	strh	r2, [r3, #0]
 80001d2:	683b      	ldr	r3, [r7, #0]
 80001d4:	889a      	ldrh	r2, [r3, #4]
 80001d6:	687b      	ldr	r3, [r7, #4]
 80001d8:	859a      	strh	r2, [r3, #44]	; 0x2c
 80001da:	683b      	ldr	r3, [r7, #0]
 80001dc:	881a      	ldrh	r2, [r3, #0]
 80001de:	687b      	ldr	r3, [r7, #4]
 80001e0:	851a      	strh	r2, [r3, #40]	; 0x28
 80001e2:	687a      	ldr	r2, [r7, #4]
 80001e4:	f44f 5330 	mov.w	r3, #11264	; 0x2c00
 80001e8:	f2c4 0301 	movt	r3, #16385	; 0x4001
 80001ec:	429a      	cmp	r2, r3
 80001ee:	d01b      	beq.n	8000228 <TIM_TimeBaseInit+0x104>
 80001f0:	687a      	ldr	r2, [r7, #4]
 80001f2:	f44f 5350 	mov.w	r3, #13312	; 0x3400
 80001f6:	f2c4 0301 	movt	r3, #16385	; 0x4001
 80001fa:	429a      	cmp	r2, r3
 80001fc:	d014      	beq.n	8000228 <TIM_TimeBaseInit+0x104>
 80001fe:	687a      	ldr	r2, [r7, #4]
 8000200:	f44f 4380 	mov.w	r3, #16384	; 0x4000
 8000204:	f2c4 0301 	movt	r3, #16385	; 0x4001
 8000208:	429a      	cmp	r2, r3
 800020a:	d00d      	beq.n	8000228 <TIM_TimeBaseInit+0x104>
 800020c:	687a      	ldr	r2, [r7, #4]
 800020e:	f44f 4388 	mov.w	r3, #17408	; 0x4400
 8000212:	f2c4 0301 	movt	r3, #16385	; 0x4001
 8000216:	429a      	cmp	r2, r3
 8000218:	d006      	beq.n	8000228 <TIM_TimeBaseInit+0x104>
 800021a:	687a      	ldr	r2, [r7, #4]
 800021c:	f44f 4390 	mov.w	r3, #18432	; 0x4800
 8000220:	f2c4 0301 	movt	r3, #16385	; 0x4001
 8000224:	429a      	cmp	r2, r3
 8000226:	d104      	bne.n	8000232 <TIM_TimeBaseInit+0x10e>
 8000228:	683b      	ldr	r3, [r7, #0]
 800022a:	7a1b      	ldrb	r3, [r3, #8]
 800022c:	461a      	mov	r2, r3
 800022e:	687b      	ldr	r3, [r7, #4]
 8000230:	861a      	strh	r2, [r3, #48]	; 0x30
 8000232:	687b      	ldr	r3, [r7, #4]
 8000234:	f04f 0201 	mov.w	r2, #1
 8000238:	829a      	strh	r2, [r3, #20]
 800023a:	f107 0714 	add.w	r7, r7, #20
 800023e:	46bd      	mov	sp, r7
 8000240:	bc80      	pop	{r7}
 8000242:	4770      	bx	lr

08000244 <TIM_OC1Init>:
 8000244:	b480      	push	{r7}
 8000246:	b085      	sub	sp, #20
 8000248:	af00      	add	r7, sp, #0
 800024a:	6078      	str	r0, [r7, #4]
 800024c:	6039      	str	r1, [r7, #0]
 800024e:	f04f 0300 	mov.w	r3, #0
 8000252:	817b      	strh	r3, [r7, #10]
 8000254:	f04f 0300 	mov.w	r3, #0
 8000258:	81fb      	strh	r3, [r7, #14]
 800025a:	f04f 0300 	mov.w	r3, #0
 800025e:	81bb      	strh	r3, [r7, #12]
 8000260:	687b      	ldr	r3, [r7, #4]
 8000262:	8c1b      	ldrh	r3, [r3, #32]
 8000264:	b29b      	uxth	r3, r3
 8000266:	f023 0301 	bic.w	r3, r3, #1
 800026a:	b29a      	uxth	r2, r3
 800026c:	687b      	ldr	r3, [r7, #4]
 800026e:	841a      	strh	r2, [r3, #32]
 8000270:	687b      	ldr	r3, [r7, #4]
 8000272:	8c1b      	ldrh	r3, [r3, #32]
 8000274:	81fb      	strh	r3, [r7, #14]
 8000276:	687b      	ldr	r3, [r7, #4]
 8000278:	889b      	ldrh	r3, [r3, #4]
 800027a:	81bb      	strh	r3, [r7, #12]
 800027c:	687b      	ldr	r3, [r7, #4]
 800027e:	8b1b      	ldrh	r3, [r3, #24]
 8000280:	817b      	strh	r3, [r7, #10]
 8000282:	897b      	ldrh	r3, [r7, #10]
 8000284:	f023 0370 	bic.w	r3, r3, #112	; 0x70
 8000288:	817b      	strh	r3, [r7, #10]
 800028a:	897b      	ldrh	r3, [r7, #10]
 800028c:	f023 0303 	bic.w	r3, r3, #3
 8000290:	817b      	strh	r3, [r7, #10]
 8000292:	683b      	ldr	r3, [r7, #0]
 8000294:	881a      	ldrh	r2, [r3, #0]
 8000296:	897b      	ldrh	r3, [r7, #10]
 8000298:	ea42 0303 	orr.w	r3, r2, r3
 800029c:	817b      	strh	r3, [r7, #10]
 800029e:	89fb      	ldrh	r3, [r7, #14]
 80002a0:	f023 0302 	bic.w	r3, r3, #2
 80002a4:	81fb      	strh	r3, [r7, #14]
 80002a6:	683b      	ldr	r3, [r7, #0]
 80002a8:	891a      	ldrh	r2, [r3, #8]
 80002aa:	89fb      	ldrh	r3, [r7, #14]
 80002ac:	ea42 0303 	orr.w	r3, r2, r3
 80002b0:	81fb      	strh	r3, [r7, #14]
 80002b2:	683b      	ldr	r3, [r7, #0]
 80002b4:	885a      	ldrh	r2, [r3, #2]
 80002b6:	89fb      	ldrh	r3, [r7, #14]
 80002b8:	ea42 0303 	orr.w	r3, r2, r3
 80002bc:	81fb      	strh	r3, [r7, #14]
 80002be:	687a      	ldr	r2, [r7, #4]
 80002c0:	f44f 5330 	mov.w	r3, #11264	; 0x2c00
 80002c4:	f2c4 0301 	movt	r3, #16385	; 0x4001
 80002c8:	429a      	cmp	r2, r3
 80002ca:	d01b      	beq.n	8000304 <TIM_OC1Init+0xc0>
 80002cc:	687a      	ldr	r2, [r7, #4]
 80002ce:	f44f 5350 	mov.w	r3, #13312	; 0x3400
 80002d2:	f2c4 0301 	movt	r3, #16385	; 0x4001
 80002d6:	429a      	cmp	r2, r3
 80002d8:	d014      	beq.n	8000304 <TIM_OC1Init+0xc0>
 80002da:	687a      	ldr	r2, [r7, #4]
 80002dc:	f44f 4380 	mov.w	r3, #16384	; 0x4000
 80002e0:	f2c4 0301 	movt	r3, #16385	; 0x4001
 80002e4:	429a      	cmp	r2, r3
 80002e6:	d00d      	beq.n	8000304 <TIM_OC1Init+0xc0>
 80002e8:	687a      	ldr	r2, [r7, #4]
 80002ea:	f44f 4388 	mov.w	r3, #17408	; 0x4400
 80002ee:	f2c4 0301 	movt	r3, #16385	; 0x4001
 80002f2:	429a      	cmp	r2, r3
 80002f4:	d006      	beq.n	8000304 <TIM_OC1Init+0xc0>
 80002f6:	687a      	ldr	r2, [r7, #4]
 80002f8:	f44f 4390 	mov.w	r3, #18432	; 0x4800
 80002fc:	f2c4 0301 	movt	r3, #16385	; 0x4001
 8000300:	429a      	cmp	r2, r3
 8000302:	d127      	bne.n	8000354 <TIM_OC1Init+0x110>
 8000304:	89fb      	ldrh	r3, [r7, #14]
 8000306:	f023 0308 	bic.w	r3, r3, #8
 800030a:	81fb      	strh	r3, [r7, #14]
 800030c:	683b      	ldr	r3, [r7, #0]
 800030e:	895a      	ldrh	r2, [r3, #10]
 8000310:	89fb      	ldrh	r3, [r7, #14]
 8000312:	ea42 0303 	orr.w	r3, r2, r3
 8000316:	81fb      	strh	r3, [r7, #14]
 8000318:	89fb      	ldrh	r3, [r7, #14]
 800031a:	f023 0304 	bic.w	r3, r3, #4
 800031e:	81fb      	strh	r3, [r7, #14]
 8000320:	683b      	ldr	r3, [r7, #0]
 8000322:	889a      	ldrh	r2, [r3, #4]
 8000324:	89fb      	ldrh	r3, [r7, #14]
 8000326:	ea42 0303 	orr.w	r3, r2, r3
 800032a:	81fb      	strh	r3, [r7, #14]
 800032c:	89bb      	ldrh	r3, [r7, #12]
 800032e:	f423 7380 	bic.w	r3, r3, #256	; 0x100
 8000332:	81bb      	strh	r3, [r7, #12]
 8000334:	89bb      	ldrh	r3, [r7, #12]
 8000336:	f423 7300 	bic.w	r3, r3, #512	; 0x200
 800033a:	81bb      	strh	r3, [r7, #12]
 800033c:	683b      	ldr	r3, [r7, #0]
 800033e:	899a      	ldrh	r2, [r3, #12]
 8000340:	89bb      	ldrh	r3, [r7, #12]
 8000342:	ea42 0303 	orr.w	r3, r2, r3
 8000346:	81bb      	strh	r3, [r7, #12]
 8000348:	683b      	ldr	r3, [r7, #0]
 800034a:	89da      	ldrh	r2, [r3, #14]
 800034c:	89bb      	ldrh	r3, [r7, #12]
 800034e:	ea42 0303 	orr.w	r3, r2, r3
 8000352:	81bb      	strh	r3, [r7, #12]
 8000354:	687b      	ldr	r3, [r7, #4]
 8000356:	89ba      	ldrh	r2, [r7, #12]
 8000358:	809a      	strh	r2, [r3, #4]
 800035a:	687b      	ldr	r3, [r7, #4]
 800035c:	897a      	ldrh	r2, [r7, #10]
 800035e:	831a      	strh	r2, [r3, #24]
 8000360:	683b      	ldr	r3, [r7, #0]
 8000362:	88da      	ldrh	r2, [r3, #6]
 8000364:	687b      	ldr	r3, [r7, #4]
 8000366:	869a      	strh	r2, [r3, #52]	; 0x34
 8000368:	687b      	ldr	r3, [r7, #4]
 800036a:	89fa      	ldrh	r2, [r7, #14]
 800036c:	841a      	strh	r2, [r3, #32]
 800036e:	f107 0714 	add.w	r7, r7, #20
 8000372:	46bd      	mov	sp, r7
 8000374:	bc80      	pop	{r7}
 8000376:	4770      	bx	lr

08000378 <TIM_OC2Init>:
 8000378:	b480      	push	{r7}
 800037a:	b085      	sub	sp, #20
 800037c:	af00      	add	r7, sp, #0
 800037e:	6078      	str	r0, [r7, #4]
 8000380:	6039      	str	r1, [r7, #0]
 8000382:	f04f 0300 	mov.w	r3, #0
 8000386:	817b      	strh	r3, [r7, #10]
 8000388:	f04f 0300 	mov.w	r3, #0
 800038c:	81fb      	strh	r3, [r7, #14]
 800038e:	f04f 0300 	mov.w	r3, #0
 8000392:	81bb      	strh	r3, [r7, #12]
 8000394:	687b      	ldr	r3, [r7, #4]
 8000396:	8c1b      	ldrh	r3, [r3, #32]
 8000398:	b29b      	uxth	r3, r3
 800039a:	f023 0310 	bic.w	r3, r3, #16
 800039e:	b29a      	uxth	r2, r3
 80003a0:	687b      	ldr	r3, [r7, #4]
 80003a2:	841a      	strh	r2, [r3, #32]
 80003a4:	687b      	ldr	r3, [r7, #4]
 80003a6:	8c1b      	ldrh	r3, [r3, #32]
 80003a8:	81fb      	strh	r3, [r7, #14]
 80003aa:	687b      	ldr	r3, [r7, #4]
 80003ac:	889b      	ldrh	r3, [r3, #4]
 80003ae:	81bb      	strh	r3, [r7, #12]
 80003b0:	687b      	ldr	r3, [r7, #4]
 80003b2:	8b1b      	ldrh	r3, [r3, #24]
 80003b4:	817b      	strh	r3, [r7, #10]
 80003b6:	897b      	ldrh	r3, [r7, #10]
 80003b8:	f423 43e0 	bic.w	r3, r3, #28672	; 0x7000
 80003bc:	817b      	strh	r3, [r7, #10]
 80003be:	897b      	ldrh	r3, [r7, #10]
 80003c0:	f423 7340 	bic.w	r3, r3, #768	; 0x300
 80003c4:	817b      	strh	r3, [r7, #10]
 80003c6:	683b      	ldr	r3, [r7, #0]
 80003c8:	881b      	ldrh	r3, [r3, #0]
 80003ca:	ea4f 2303 	mov.w	r3, r3, lsl #8
 80003ce:	b29a      	uxth	r2, r3
 80003d0:	897b      	ldrh	r3, [r7, #10]
 80003d2:	ea42 0303 	orr.w	r3, r2, r3
 80003d6:	817b      	strh	r3, [r7, #10]
 80003d8:	89fb      	ldrh	r3, [r7, #14]
 80003da:	f023 0320 	bic.w	r3, r3, #32
 80003de:	81fb      	strh	r3, [r7, #14]
 80003e0:	683b      	ldr	r3, [r7, #0]
 80003e2:	891b      	ldrh	r3, [r3, #8]
 80003e4:	ea4f 1303 	mov.w	r3, r3, lsl #4
 80003e8:	b29a      	uxth	r2, r3
 80003ea:	89fb      	ldrh	r3, [r7, #14]
 80003ec:	ea42 0303 	orr.w	r3, r2, r3
 80003f0:	81fb      	strh	r3, [r7, #14]
 80003f2:	683b      	ldr	r3, [r7, #0]
 80003f4:	885b      	ldrh	r3, [r3, #2]
 80003f6:	ea4f 1303 	mov.w	r3, r3, lsl #4
 80003fa:	b29a      	uxth	r2, r3
 80003fc:	89fb      	ldrh	r3, [r7, #14]
 80003fe:	ea42 0303 	orr.w	r3, r2, r3
 8000402:	81fb      	strh	r3, [r7, #14]
 8000404:	687a      	ldr	r2, [r7, #4]
 8000406:	f44f 5330 	mov.w	r3, #11264	; 0x2c00
 800040a:	f2c4 0301 	movt	r3, #16385	; 0x4001
 800040e:	429a      	cmp	r2, r3
 8000410:	d006      	beq.n	8000420 <TIM_OC2Init+0xa8>
 8000412:	687a      	ldr	r2, [r7, #4]
 8000414:	f44f 5350 	mov.w	r3, #13312	; 0x3400
 8000418:	f2c4 0301 	movt	r3, #16385	; 0x4001
 800041c:	429a      	cmp	r2, r3
 800041e:	d133      	bne.n	8000488 <TIM_OC2Init+0x110>
 8000420:	89fb      	ldrh	r3, [r7, #14]
 8000422:	f023 0380 	bic.w	r3, r3, #128	; 0x80
 8000426:	81fb      	strh	r3, [r7, #14]
 8000428:	683b      	ldr	r3, [r7, #0]
 800042a:	895b      	ldrh	r3, [r3, #10]
 800042c:	ea4f 1303 	mov.w	r3, r3, lsl #4
 8000430:	b29a      	uxth	r2, r3
 8000432:	89fb      	ldrh	r3, [r7, #14]
 8000434:	ea42 0303 	orr.w	r3, r2, r3
 8000438:	81fb      	strh	r3, [r7, #14]
 800043a:	89fb      	ldrh	r3, [r7, #14]
 800043c:	f023 0340 	bic.w	r3, r3, #64	; 0x40
 8000440:	81fb      	strh	r3, [r7, #14]
 8000442:	683b      	ldr	r3, [r7, #0]
 8000444:	889b      	ldrh	r3, [r3, #4]
 8000446:	ea4f 1303 	mov.w	r3, r3, lsl #4
 800044a:	b29a      	uxth	r2, r3
 800044c:	89fb      	ldrh	r3, [r7, #14]
 800044e:	ea42 0303 	orr.w	r3, r2, r3
 8000452:	81fb      	strh	r3, [r7, #14]
 8000454:	89bb      	ldrh	r3, [r7, #12]
 8000456:	f423 6380 	bic.w	r3, r3, #1024	; 0x400
 800045a:	81bb      	strh	r3, [r7, #12]
 800045c:	89bb      	ldrh	r3, [r7, #12]
 800045e:	f423 6300 	bic.w	r3, r3, #2048	; 0x800
 8000462:	81bb      	strh	r3, [r7, #12]
 8000464:	683b      	ldr	r3, [r7, #0]
 8000466:	899b      	ldrh	r3, [r3, #12]
 8000468:	ea4f 0383 	mov.w	r3, r3, lsl #2
 800046c:	b29a      	uxth	r2, r3
 800046e:	89bb      	ldrh	r3, [r7, #12]
 8000470:	ea42 0303 	orr.w	r3, r2, r3
 8000474:	81bb      	strh	r3, [r7, #12]
 8000476:	683b      	ldr	r3, [r7, #0]
 8000478:	89db      	ldrh	r3, [r3, #14]
 800047a:	ea4f 0383 	mov.w	r3, r3, lsl #2
 800047e:	b29a      	uxth	r2, r3
 8000480:	89bb      	ldrh	r3, [r7, #12]
 8000482:	ea42 0303 	orr.w	r3, r2, r3
 8000486:	81bb      	strh	r3, [r7, #12]
 8000488:	687b      	ldr	r3, [r7, #4]
 800048a:	89ba      	ldrh	r2, [r7, #12]
 800048c:	809a      	strh	r2, [r3, #4]
 800048e:	687b      	ldr	r3, [r7, #4]
 8000490:	897a      	ldrh	r2, [r7, #10]
 8000492:	831a      	strh	r2, [r3, #24]
 8000494:	683b      	ldr	r3, [r7, #0]
 8000496:	88da      	ldrh	r2, [r3, #6]
 8000498:	687b      	ldr	r3, [r7, #4]
 800049a:	871a      	strh	r2, [r3, #56]	; 0x38
 800049c:	687b      	ldr	r3, [r7, #4]
 800049e:	89fa      	ldrh	r2, [r7, #14]
 80004a0:	841a      	strh	r2, [r3, #32]
 80004a2:	f107 0714 	add.w	r7, r7, #20
 80004a6:	46bd      	mov	sp, r7
 80004a8:	bc80      	pop	{r7}
 80004aa:	4770      	bx	lr

080004ac <TIM_OC3Init>:
 80004ac:	b480      	push	{r7}
 80004ae:	b085      	sub	sp, #20
 80004b0:	af00      	add	r7, sp, #0
 80004b2:	6078      	str	r0, [r7, #4]
 80004b4:	6039      	str	r1, [r7, #0]
 80004b6:	f04f 0300 	mov.w	r3, #0
 80004ba:	817b      	strh	r3, [r7, #10]
 80004bc:	f04f 0300 	mov.w	r3, #0
 80004c0:	81fb      	strh	r3, [r7, #14]
 80004c2:	f04f 0300 	mov.w	r3, #0
 80004c6:	81bb      	strh	r3, [r7, #12]
 80004c8:	687b      	ldr	r3, [r7, #4]
 80004ca:	8c1b      	ldrh	r3, [r3, #32]
 80004cc:	b29b      	uxth	r3, r3
 80004ce:	f423 7380 	bic.w	r3, r3, #256	; 0x100
 80004d2:	b29a      	uxth	r2, r3
 80004d4:	687b      	ldr	r3, [r7, #4]
 80004d6:	841a      	strh	r2, [r3, #32]
 80004d8:	687b      	ldr	r3, [r7, #4]
 80004da:	8c1b      	ldrh	r3, [r3, #32]
 80004dc:	81fb      	strh	r3, [r7, #14]
 80004de:	687b      	ldr	r3, [r7, #4]
 80004e0:	889b      	ldrh	r3, [r3, #4]
 80004e2:	81bb      	strh	r3, [r7, #12]
 80004e4:	687b      	ldr	r3, [r7, #4]
 80004e6:	8b9b      	ldrh	r3, [r3, #28]
 80004e8:	817b      	strh	r3, [r7, #10]
 80004ea:	897b      	ldrh	r3, [r7, #10]
 80004ec:	f023 0370 	bic.w	r3, r3, #112	; 0x70
 80004f0:	817b      	strh	r3, [r7, #10]
 80004f2:	897b      	ldrh	r3, [r7, #10]
 80004f4:	f023 0303 	bic.w	r3, r3, #3
 80004f8:	817b      	strh	r3, [r7, #10]
 80004fa:	683b      	ldr	r3, [r7, #0]
 80004fc:	881a      	ldrh	r2, [r3, #0]
 80004fe:	897b      	ldrh	r3, [r7, #10]
 8000500:	ea42 0303 	orr.w	r3, r2, r3
 8000504:	817b      	strh	r3, [r7, #10]
 8000506:	89fb      	ldrh	r3, [r7, #14]
 8000508:	f423 7300 	bic.w	r3, r3, #512	; 0x200
 800050c:	81fb      	strh	r3, [r7, #14]
 800050e:	683b      	ldr	r3, [r7, #0]
 8000510:	891b      	ldrh	r3, [r3, #8]
 8000512:	ea4f 2303 	mov.w	r3, r3, lsl #8
 8000516:	b29a      	uxth	r2, r3
 8000518:	89fb      	ldrh	r3, [r7, #14]
 800051a:	ea42 0303 	orr.w	r3, r2, r3
 800051e:	81fb      	strh	r3, [r7, #14]
 8000520:	683b      	ldr	r3, [r7, #0]
 8000522:	885b      	ldrh	r3, [r3, #2]
 8000524:	ea4f 2303 	mov.w	r3, r3, lsl #8
 8000528:	b29a      	uxth	r2, r3
 800052a:	89fb      	ldrh	r3, [r7, #14]
 800052c:	ea42 0303 	orr.w	r3, r2, r3
 8000530:	81fb      	strh	r3, [r7, #14]
 8000532:	687a      	ldr	r2, [r7, #4]
 8000534:	f44f 5330 	mov.w	r3, #11264	; 0x2c00
 8000538:	f2c4 0301 	movt	r3, #16385	; 0x4001
 800053c:	429a      	cmp	r2, r3
 800053e:	d006      	beq.n	800054e <TIM_OC3Init+0xa2>
 8000540:	687a      	ldr	r2, [r7, #4]
 8000542:	f44f 5350 	mov.w	r3, #13312	; 0x3400
 8000546:	f2c4 0301 	movt	r3, #16385	; 0x4001
 800054a:	429a      	cmp	r2, r3
 800054c:	d133      	bne.n	80005b6 <TIM_OC3Init+0x10a>
 800054e:	89fb      	ldrh	r3, [r7, #14]
 8000550:	f423 6300 	bic.w	r3, r3, #2048	; 0x800
 8000554:	81fb      	strh	r3, [r7, #14]
 8000556:	683b      	ldr	r3, [r7, #0]
 8000558:	895b      	ldrh	r3, [r3, #10]
 800055a:	ea4f 2303 	mov.w	r3, r3, lsl #8
 800055e:	b29a      	uxth	r2, r3
 8000560:	89fb      	ldrh	r3, [r7, #14]
 8000562:	ea42 0303 	orr.w	r3, r2, r3
 8000566:	81fb      	strh	r3, [r7, #14]
 8000568:	89fb      	ldrh	r3, [r7, #14]
 800056a:	f423 6380 	bic.w	r3, r3, #1024	; 0x400
 800056e:	81fb      	strh	r3, [r7, #14]
 8000570:	683b      	ldr	r3, [r7, #0]
 8000572:	889b      	ldrh	r3, [r3, #4]
 8000574:	ea4f 2303 	mov.w	r3, r3, lsl #8
 8000578:	b29a      	uxth	r2, r3
 800057a:	89fb      	ldrh	r3, [r7, #14]
 800057c:	ea42 0303 	orr.w	r3, r2, r3
 8000580:	81fb      	strh	r3, [r7, #14]
 8000582:	89bb      	ldrh	r3, [r7, #12]
 8000584:	f423 5380 	bic.w	r3, r3, #4096	; 0x1000
 8000588:	81bb      	strh	r3, [r7, #12]
 800058a:	89bb      	ldrh	r3, [r7, #12]
 800058c:	f423 5300 	bic.w	r3, r3, #8192	; 0x2000
 8000590:	81bb      	strh	r3, [r7, #12]
 8000592:	683b      	ldr	r3, [r7, #0]
 8000594:	899b      	ldrh	r3, [r3, #12]
 8000596:	ea4f 1303 	mov.w	r3, r3, lsl #4
 800059a:	b29a      	uxth	r2, r3
 800059c:	89bb      	ldrh	r3, [r7, #12]
 800059e:	ea42 0303 	orr.w	r3, r2, r3
 80005a2:	81bb      	strh	r3, [r7, #12]
 80005a4:	683b      	ldr	r3, [r7, #0]
 80005a6:	89db      	ldrh	r3, [r3, #14]
 80005a8:	ea4f 1303 	mov.w	r3, r3, lsl #4
 80005ac:	b29a      	uxth	r2, r3
 80005ae:	89bb      	ldrh	r3, [r7, #12]
 80005b0:	ea42 0303 	orr.w	r3, r2, r3
 80005b4:	81bb      	strh	r3, [r7, #12]
 80005b6:	687b      	ldr	r3, [r7, #4]
 80005b8:	89ba      	ldrh	r2, [r7, #12]
 80005ba:	809a      	strh	r2, [r3, #4]
 80005bc:	687b      	ldr	r3, [r7, #4]
 80005be:	897a      	ldrh	r2, [r7, #10]
 80005c0:	839a      	strh	r2, [r3, #28]
 80005c2:	683b      	ldr	r3, [r7, #0]
 80005c4:	88da      	ldrh	r2, [r3, #6]
 80005c6:	687b      	ldr	r3, [r7, #4]
 80005c8:	879a      	strh	r2, [r3, #60]	; 0x3c
 80005ca:	687b      	ldr	r3, [r7, #4]
 80005cc:	89fa      	ldrh	r2, [r7, #14]
 80005ce:	841a      	strh	r2, [r3, #32]
 80005d0:	f107 0714 	add.w	r7, r7, #20
 80005d4:	46bd      	mov	sp, r7
 80005d6:	bc80      	pop	{r7}
 80005d8:	4770      	bx	lr
 80005da:	bf00      	nop

080005dc <TIM_OC4Init>:
 80005dc:	b480      	push	{r7}
 80005de:	b085      	sub	sp, #20
 80005e0:	af00      	add	r7, sp, #0
 80005e2:	6078      	str	r0, [r7, #4]
 80005e4:	6039      	str	r1, [r7, #0]
 80005e6:	f04f 0300 	mov.w	r3, #0
 80005ea:	81bb      	strh	r3, [r7, #12]
 80005ec:	f04f 0300 	mov.w	r3, #0
 80005f0:	817b      	strh	r3, [r7, #10]
 80005f2:	f04f 0300 	mov.w	r3, #0
 80005f6:	81fb      	strh	r3, [r7, #14]
 80005f8:	687b      	ldr	r3, [r7, #4]
 80005fa:	8c1b      	ldrh	r3, [r3, #32]
 80005fc:	b29b      	uxth	r3, r3
 80005fe:	f423 5380 	bic.w	r3, r3, #4096	; 0x1000
 8000602:	b29a      	uxth	r2, r3
 8000604:	687b      	ldr	r3, [r7, #4]
 8000606:	841a      	strh	r2, [r3, #32]
 8000608:	687b      	ldr	r3, [r7, #4]
 800060a:	8c1b      	ldrh	r3, [r3, #32]
 800060c:	817b      	strh	r3, [r7, #10]
 800060e:	687b      	ldr	r3, [r7, #4]
 8000610:	889b      	ldrh	r3, [r3, #4]
 8000612:	81fb      	strh	r3, [r7, #14]
 8000614:	687b      	ldr	r3, [r7, #4]
 8000616:	8b9b      	ldrh	r3, [r3, #28]
 8000618:	81bb      	strh	r3, [r7, #12]
 800061a:	89bb      	ldrh	r3, [r7, #12]
 800061c:	f423 43e0 	bic.w	r3, r3, #28672	; 0x7000
 8000620:	81bb      	strh	r3, [r7, #12]
 8000622:	89bb      	ldrh	r3, [r7, #12]
 8000624:	f423 7340 	bic.w	r3, r3, #768	; 0x300
 8000628:	81bb      	strh	r3, [r7, #12]
 800062a:	683b      	ldr	r3, [r7, #0]
 800062c:	881b      	ldrh	r3, [r3, #0]
 800062e:	ea4f 2303 	mov.w	r3, r3, lsl #8
 8000632:	b29a      	uxth	r2, r3
 8000634:	89bb      	ldrh	r3, [r7, #12]
 8000636:	ea42 0303 	orr.w	r3, r2, r3
 800063a:	81bb      	strh	r3, [r7, #12]
 800063c:	897b      	ldrh	r3, [r7, #10]
 800063e:	f423 5300 	bic.w	r3, r3, #8192	; 0x2000
 8000642:	817b      	strh	r3, [r7, #10]
 8000644:	683b      	ldr	r3, [r7, #0]
 8000646:	891b      	ldrh	r3, [r3, #8]
 8000648:	ea4f 3303 	mov.w	r3, r3, lsl #12
 800064c:	b29a      	uxth	r2, r3
 800064e:	897b      	ldrh	r3, [r7, #10]
 8000650:	ea42 0303 	orr.w	r3, r2, r3
 8000654:	817b      	strh	r3, [r7, #10]
 8000656:	683b      	ldr	r3, [r7, #0]
 8000658:	885b      	ldrh	r3, [r3, #2]
 800065a:	ea4f 3303 	mov.w	r3, r3, lsl #12
 800065e:	b29a      	uxth	r2, r3
 8000660:	897b      	ldrh	r3, [r7, #10]
 8000662:	ea42 0303 	orr.w	r3, r2, r3
 8000666:	817b      	strh	r3, [r7, #10]
 8000668:	687a      	ldr	r2, [r7, #4]
 800066a:	f44f 5330 	mov.w	r3, #11264	; 0x2c00
 800066e:	f2c4 0301 	movt	r3, #16385	; 0x4001
 8000672:	429a      	cmp	r2, r3
 8000674:	d006      	beq.n	8000684 <TIM_OC4Init+0xa8>
 8000676:	687a      	ldr	r2, [r7, #4]
 8000678:	f44f 5350 	mov.w	r3, #13312	; 0x3400
 800067c:	f2c4 0301 	movt	r3, #16385	; 0x4001
 8000680:	429a      	cmp	r2, r3
 8000682:	d10c      	bne.n	800069e <TIM_OC4Init+0xc2>
 8000684:	89fb      	ldrh	r3, [r7, #14]
 8000686:	f423 4380 	bic.w	r3, r3, #16384	; 0x4000
 800068a:	81fb      	strh	r3, [r7, #14]
 800068c:	683b      	ldr	r3, [r7, #0]
 800068e:	899b      	ldrh	r3, [r3, #12]
 8000690:	ea4f 1383 	mov.w	r3, r3, lsl #6
 8000694:	b29a      	uxth	r2, r3
 8000696:	89fb      	ldrh	r3, [r7, #14]
 8000698:	ea42 0303 	orr.w	r3, r2, r3
 800069c:	81fb      	strh	r3, [r7, #14]
 800069e:	687b      	ldr	r3, [r7, #4]
 80006a0:	89fa      	ldrh	r2, [r7, #14]
 80006a2:	809a      	strh	r2, [r3, #4]
 80006a4:	687b      	ldr	r3, [r7, #4]
 80006a6:	89ba      	ldrh	r2, [r7, #12]
 80006a8:	839a      	strh	r2, [r3, #28]
 80006aa:	683b      	ldr	r3, [r7, #0]
 80006ac:	88da      	ldrh	r2, [r3, #6]
 80006ae:	687b      	ldr	r3, [r7, #4]
 80006b0:	f8a3 2040 	strh.w	r2, [r3, #64]	; 0x40
 80006b4:	687b      	ldr	r3, [r7, #4]
 80006b6:	897a      	ldrh	r2, [r7, #10]
 80006b8:	841a      	strh	r2, [r3, #32]
 80006ba:	f107 0714 	add.w	r7, r7, #20
 80006be:	46bd      	mov	sp, r7
 80006c0:	bc80      	pop	{r7}
 80006c2:	4770      	bx	lr

080006c4 <TIM_TimeBaseStructInit>:
 80006c4:	b480      	push	{r7}
 80006c6:	b083      	sub	sp, #12
 80006c8:	af00      	add	r7, sp, #0
 80006ca:	6078      	str	r0, [r7, #4]
 80006cc:	687b      	ldr	r3, [r7, #4]
 80006ce:	f64f 72ff 	movw	r2, #65535	; 0xffff
 80006d2:	809a      	strh	r2, [r3, #4]
 80006d4:	687b      	ldr	r3, [r7, #4]
 80006d6:	f04f 0200 	mov.w	r2, #0
 80006da:	801a      	strh	r2, [r3, #0]
 80006dc:	687b      	ldr	r3, [r7, #4]
 80006de:	f04f 0200 	mov.w	r2, #0
 80006e2:	80da      	strh	r2, [r3, #6]
 80006e4:	687b      	ldr	r3, [r7, #4]
 80006e6:	f04f 0200 	mov.w	r2, #0
 80006ea:	805a      	strh	r2, [r3, #2]
 80006ec:	687b      	ldr	r3, [r7, #4]
 80006ee:	f04f 0200 	mov.w	r2, #0
 80006f2:	721a      	strb	r2, [r3, #8]
 80006f4:	f107 070c 	add.w	r7, r7, #12
 80006f8:	46bd      	mov	sp, r7
 80006fa:	bc80      	pop	{r7}
 80006fc:	4770      	bx	lr
 80006fe:	bf00      	nop

08000700 <TIM_Cmd>:
 8000700:	b480      	push	{r7}
 8000702:	b083      	sub	sp, #12
 8000704:	af00      	add	r7, sp, #0
 8000706:	6078      	str	r0, [r7, #4]
 8000708:	460b      	mov	r3, r1
 800070a:	70fb      	strb	r3, [r7, #3]
 800070c:	78fb      	ldrb	r3, [r7, #3]
 800070e:	2b00      	cmp	r3, #0
 8000710:	d008      	beq.n	8000724 <TIM_Cmd+0x24>
 8000712:	687b      	ldr	r3, [r7, #4]
 8000714:	881b      	ldrh	r3, [r3, #0]
 8000716:	b29b      	uxth	r3, r3
 8000718:	f043 0301 	orr.w	r3, r3, #1
 800071c:	b29a      	uxth	r2, r3
 800071e:	687b      	ldr	r3, [r7, #4]
 8000720:	801a      	strh	r2, [r3, #0]
 8000722:	e007      	b.n	8000734 <TIM_Cmd+0x34>
 8000724:	687b      	ldr	r3, [r7, #4]
 8000726:	881b      	ldrh	r3, [r3, #0]
 8000728:	b29b      	uxth	r3, r3
 800072a:	f023 0301 	bic.w	r3, r3, #1
 800072e:	b29a      	uxth	r2, r3
 8000730:	687b      	ldr	r3, [r7, #4]
 8000732:	801a      	strh	r2, [r3, #0]
 8000734:	f107 070c 	add.w	r7, r7, #12
 8000738:	46bd      	mov	sp, r7
 800073a:	bc80      	pop	{r7}
 800073c:	4770      	bx	lr
 800073e:	bf00      	nop

08000740 <TIM_ITConfig>:
 8000740:	b480      	push	{r7}
 8000742:	b083      	sub	sp, #12
 8000744:	af00      	add	r7, sp, #0
 8000746:	6078      	str	r0, [r7, #4]
 8000748:	4613      	mov	r3, r2
 800074a:	460a      	mov	r2, r1
 800074c:	807a      	strh	r2, [r7, #2]
 800074e:	707b      	strb	r3, [r7, #1]
 8000750:	787b      	ldrb	r3, [r7, #1]
 8000752:	2b00      	cmp	r3, #0
 8000754:	d009      	beq.n	800076a <TIM_ITConfig+0x2a>
 8000756:	687b      	ldr	r3, [r7, #4]
 8000758:	899b      	ldrh	r3, [r3, #12]
 800075a:	b29a      	uxth	r2, r3
 800075c:	887b      	ldrh	r3, [r7, #2]
 800075e:	ea42 0303 	orr.w	r3, r2, r3
 8000762:	b29a      	uxth	r2, r3
 8000764:	687b      	ldr	r3, [r7, #4]
 8000766:	819a      	strh	r2, [r3, #12]
 8000768:	e00b      	b.n	8000782 <TIM_ITConfig+0x42>
 800076a:	687b      	ldr	r3, [r7, #4]
 800076c:	899b      	ldrh	r3, [r3, #12]
 800076e:	b29a      	uxth	r2, r3
 8000770:	887b      	ldrh	r3, [r7, #2]
 8000772:	ea6f 0303 	mvn.w	r3, r3
 8000776:	b29b      	uxth	r3, r3
 8000778:	ea02 0303 	and.w	r3, r2, r3
 800077c:	b29a      	uxth	r2, r3
 800077e:	687b      	ldr	r3, [r7, #4]
 8000780:	819a      	strh	r2, [r3, #12]
 8000782:	f107 070c 	add.w	r7, r7, #12
 8000786:	46bd      	mov	sp, r7
 8000788:	bc80      	pop	{r7}
 800078a:	4770      	bx	lr

0800078c <TIM_EncoderInterfaceConfig>:
 800078c:	b480      	push	{r7}
 800078e:	b087      	sub	sp, #28
 8000790:	af00      	add	r7, sp, #0
 8000792:	60f8      	str	r0, [r7, #12]
 8000794:	8179      	strh	r1, [r7, #10]
 8000796:	813a      	strh	r2, [r7, #8]
 8000798:	80fb      	strh	r3, [r7, #6]
 800079a:	f04f 0300 	mov.w	r3, #0
 800079e:	82fb      	strh	r3, [r7, #22]
 80007a0:	f04f 0300 	mov.w	r3, #0
 80007a4:	82bb      	strh	r3, [r7, #20]
 80007a6:	f04f 0300 	mov.w	r3, #0
 80007aa:	827b      	strh	r3, [r7, #18]
 80007ac:	68fb      	ldr	r3, [r7, #12]
 80007ae:	891b      	ldrh	r3, [r3, #8]
 80007b0:	82fb      	strh	r3, [r7, #22]
 80007b2:	68fb      	ldr	r3, [r7, #12]
 80007b4:	8b1b      	ldrh	r3, [r3, #24]
 80007b6:	82bb      	strh	r3, [r7, #20]
 80007b8:	68fb      	ldr	r3, [r7, #12]
 80007ba:	8c1b      	ldrh	r3, [r3, #32]
 80007bc:	827b      	strh	r3, [r7, #18]
 80007be:	8afb      	ldrh	r3, [r7, #22]
 80007c0:	f023 0307 	bic.w	r3, r3, #7
 80007c4:	82fb      	strh	r3, [r7, #22]
 80007c6:	8afa      	ldrh	r2, [r7, #22]
 80007c8:	897b      	ldrh	r3, [r7, #10]
 80007ca:	ea42 0303 	orr.w	r3, r2, r3
 80007ce:	82fb      	strh	r3, [r7, #22]
 80007d0:	8abb      	ldrh	r3, [r7, #20]
 80007d2:	f423 7340 	bic.w	r3, r3, #768	; 0x300
 80007d6:	f023 0303 	bic.w	r3, r3, #3
 80007da:	82bb      	strh	r3, [r7, #20]
 80007dc:	8abb      	ldrh	r3, [r7, #20]
 80007de:	f443 7380 	orr.w	r3, r3, #256	; 0x100
 80007e2:	f043 0301 	orr.w	r3, r3, #1
 80007e6:	82bb      	strh	r3, [r7, #20]
 80007e8:	8a7b      	ldrh	r3, [r7, #18]
 80007ea:	f023 0322 	bic.w	r3, r3, #34	; 0x22
 80007ee:	827b      	strh	r3, [r7, #18]
 80007f0:	88fb      	ldrh	r3, [r7, #6]
 80007f2:	ea4f 1303 	mov.w	r3, r3, lsl #4
 80007f6:	b29a      	uxth	r2, r3
 80007f8:	893b      	ldrh	r3, [r7, #8]
 80007fa:	ea42 0303 	orr.w	r3, r2, r3
 80007fe:	b29a      	uxth	r2, r3
 8000800:	8a7b      	ldrh	r3, [r7, #18]
 8000802:	ea42 0303 	orr.w	r3, r2, r3
 8000806:	827b      	strh	r3, [r7, #18]
 8000808:	68fb      	ldr	r3, [r7, #12]
 800080a:	8afa      	ldrh	r2, [r7, #22]
 800080c:	811a      	strh	r2, [r3, #8]
 800080e:	68fb      	ldr	r3, [r7, #12]
 8000810:	8aba      	ldrh	r2, [r7, #20]
 8000812:	831a      	strh	r2, [r3, #24]
 8000814:	68fb      	ldr	r3, [r7, #12]
 8000816:	8a7a      	ldrh	r2, [r7, #18]
 8000818:	841a      	strh	r2, [r3, #32]
 800081a:	f107 071c 	add.w	r7, r7, #28
 800081e:	46bd      	mov	sp, r7
 8000820:	bc80      	pop	{r7}
 8000822:	4770      	bx	lr

08000824 <TIM_ARRPreloadConfig>:
 8000824:	b480      	push	{r7}
 8000826:	b083      	sub	sp, #12
 8000828:	af00      	add	r7, sp, #0
 800082a:	6078      	str	r0, [r7, #4]
 800082c:	460b      	mov	r3, r1
 800082e:	70fb      	strb	r3, [r7, #3]
 8000830:	78fb      	ldrb	r3, [r7, #3]
 8000832:	2b00      	cmp	r3, #0
 8000834:	d008      	beq.n	8000848 <TIM_ARRPreloadConfig+0x24>
 8000836:	687b      	ldr	r3, [r7, #4]
 8000838:	881b      	ldrh	r3, [r3, #0]
 800083a:	b29b      	uxth	r3, r3
 800083c:	f043 0380 	orr.w	r3, r3, #128	; 0x80
 8000840:	b29a      	uxth	r2, r3
 8000842:	687b      	ldr	r3, [r7, #4]
 8000844:	801a      	strh	r2, [r3, #0]
 8000846:	e007      	b.n	8000858 <TIM_ARRPreloadConfig+0x34>
 8000848:	687b      	ldr	r3, [r7, #4]
 800084a:	881b      	ldrh	r3, [r3, #0]
 800084c:	b29b      	uxth	r3, r3
 800084e:	f023 0380 	bic.w	r3, r3, #128	; 0x80
 8000852:	b29a      	uxth	r2, r3
 8000854:	687b      	ldr	r3, [r7, #4]
 8000856:	801a      	strh	r2, [r3, #0]
 8000858:	f107 070c 	add.w	r7, r7, #12
 800085c:	46bd      	mov	sp, r7
 800085e:	bc80      	pop	{r7}
 8000860:	4770      	bx	lr
 8000862:	bf00      	nop

08000864 <TIM_OC1PreloadConfig>:
 8000864:	b480      	push	{r7}
 8000866:	b085      	sub	sp, #20
 8000868:	af00      	add	r7, sp, #0
 800086a:	6078      	str	r0, [r7, #4]
 800086c:	460b      	mov	r3, r1
 800086e:	807b      	strh	r3, [r7, #2]
 8000870:	f04f 0300 	mov.w	r3, #0
 8000874:	81fb      	strh	r3, [r7, #14]
 8000876:	687b      	ldr	r3, [r7, #4]
 8000878:	8b1b      	ldrh	r3, [r3, #24]
 800087a:	81fb      	strh	r3, [r7, #14]
 800087c:	89fb      	ldrh	r3, [r7, #14]
 800087e:	f023 0308 	bic.w	r3, r3, #8
 8000882:	81fb      	strh	r3, [r7, #14]
 8000884:	89fa      	ldrh	r2, [r7, #14]
 8000886:	887b      	ldrh	r3, [r7, #2]
 8000888:	ea42 0303 	orr.w	r3, r2, r3
 800088c:	81fb      	strh	r3, [r7, #14]
 800088e:	687b      	ldr	r3, [r7, #4]
 8000890:	89fa      	ldrh	r2, [r7, #14]
 8000892:	831a      	strh	r2, [r3, #24]
 8000894:	f107 0714 	add.w	r7, r7, #20
 8000898:	46bd      	mov	sp, r7
 800089a:	bc80      	pop	{r7}
 800089c:	4770      	bx	lr
 800089e:	bf00      	nop

080008a0 <TIM_OC2PreloadConfig>:
 80008a0:	b480      	push	{r7}
 80008a2:	b085      	sub	sp, #20
 80008a4:	af00      	add	r7, sp, #0
 80008a6:	6078      	str	r0, [r7, #4]
 80008a8:	460b      	mov	r3, r1
 80008aa:	807b      	strh	r3, [r7, #2]
 80008ac:	f04f 0300 	mov.w	r3, #0
 80008b0:	81fb      	strh	r3, [r7, #14]
 80008b2:	687b      	ldr	r3, [r7, #4]
 80008b4:	8b1b      	ldrh	r3, [r3, #24]
 80008b6:	81fb      	strh	r3, [r7, #14]
 80008b8:	89fb      	ldrh	r3, [r7, #14]
 80008ba:	f423 6300 	bic.w	r3, r3, #2048	; 0x800
 80008be:	81fb      	strh	r3, [r7, #14]
 80008c0:	887b      	ldrh	r3, [r7, #2]
 80008c2:	ea4f 2303 	mov.w	r3, r3, lsl #8
 80008c6:	b29a      	uxth	r2, r3
 80008c8:	89fb      	ldrh	r3, [r7, #14]
 80008ca:	ea42 0303 	orr.w	r3, r2, r3
 80008ce:	81fb      	strh	r3, [r7, #14]
 80008d0:	687b      	ldr	r3, [r7, #4]
 80008d2:	89fa      	ldrh	r2, [r7, #14]
 80008d4:	831a      	strh	r2, [r3, #24]
 80008d6:	f107 0714 	add.w	r7, r7, #20
 80008da:	46bd      	mov	sp, r7
 80008dc:	bc80      	pop	{r7}
 80008de:	4770      	bx	lr

080008e0 <TIM_SetCounter>:
 80008e0:	b480      	push	{r7}
 80008e2:	b083      	sub	sp, #12
 80008e4:	af00      	add	r7, sp, #0
 80008e6:	6078      	str	r0, [r7, #4]
 80008e8:	460b      	mov	r3, r1
 80008ea:	807b      	strh	r3, [r7, #2]
 80008ec:	687b      	ldr	r3, [r7, #4]
 80008ee:	887a      	ldrh	r2, [r7, #2]
 80008f0:	849a      	strh	r2, [r3, #36]	; 0x24
 80008f2:	f107 070c 	add.w	r7, r7, #12
 80008f6:	46bd      	mov	sp, r7
 80008f8:	bc80      	pop	{r7}
 80008fa:	4770      	bx	lr

080008fc <TIM_GetITStatus>:
 80008fc:	b480      	push	{r7}
 80008fe:	b085      	sub	sp, #20
 8000900:	af00      	add	r7, sp, #0
 8000902:	6078      	str	r0, [r7, #4]
 8000904:	460b      	mov	r3, r1
 8000906:	807b      	strh	r3, [r7, #2]
 8000908:	f04f 0300 	mov.w	r3, #0
 800090c:	73fb      	strb	r3, [r7, #15]
 800090e:	f04f 0300 	mov.w	r3, #0
 8000912:	81bb      	strh	r3, [r7, #12]
 8000914:	f04f 0300 	mov.w	r3, #0
 8000918:	817b      	strh	r3, [r7, #10]
 800091a:	687b      	ldr	r3, [r7, #4]
 800091c:	8a1b      	ldrh	r3, [r3, #16]
 800091e:	b29a      	uxth	r2, r3
 8000920:	887b      	ldrh	r3, [r7, #2]
 8000922:	ea02 0303 	and.w	r3, r2, r3
 8000926:	81bb      	strh	r3, [r7, #12]
 8000928:	687b      	ldr	r3, [r7, #4]
 800092a:	899b      	ldrh	r3, [r3, #12]
 800092c:	b29a      	uxth	r2, r3
 800092e:	887b      	ldrh	r3, [r7, #2]
 8000930:	ea02 0303 	and.w	r3, r2, r3
 8000934:	817b      	strh	r3, [r7, #10]
 8000936:	89bb      	ldrh	r3, [r7, #12]
 8000938:	2b00      	cmp	r3, #0
 800093a:	d006      	beq.n	800094a <TIM_GetITStatus+0x4e>
 800093c:	897b      	ldrh	r3, [r7, #10]
 800093e:	2b00      	cmp	r3, #0
 8000940:	d003      	beq.n	800094a <TIM_GetITStatus+0x4e>
 8000942:	f04f 0301 	mov.w	r3, #1
 8000946:	73fb      	strb	r3, [r7, #15]
 8000948:	e002      	b.n	8000950 <TIM_GetITStatus+0x54>
 800094a:	f04f 0300 	mov.w	r3, #0
 800094e:	73fb      	strb	r3, [r7, #15]
 8000950:	7bfb      	ldrb	r3, [r7, #15]
 8000952:	4618      	mov	r0, r3
 8000954:	f107 0714 	add.w	r7, r7, #20
 8000958:	46bd      	mov	sp, r7
 800095a:	bc80      	pop	{r7}
 800095c:	4770      	bx	lr
 800095e:	bf00      	nop

08000960 <TIM_ClearITPendingBit>:
 8000960:	b480      	push	{r7}
 8000962:	b083      	sub	sp, #12
 8000964:	af00      	add	r7, sp, #0
 8000966:	6078      	str	r0, [r7, #4]
 8000968:	460b      	mov	r3, r1
 800096a:	807b      	strh	r3, [r7, #2]
 800096c:	887b      	ldrh	r3, [r7, #2]
 800096e:	ea6f 0303 	mvn.w	r3, r3
 8000972:	b29a      	uxth	r2, r3
 8000974:	687b      	ldr	r3, [r7, #4]
 8000976:	821a      	strh	r2, [r3, #16]
 8000978:	f107 070c 	add.w	r7, r7, #12
 800097c:	46bd      	mov	sp, r7
 800097e:	bc80      	pop	{r7}
 8000980:	4770      	bx	lr
 8000982:	bf00      	nop

08000984 <Default_Reset_Handler>:
 8000984:	b580      	push	{r7, lr}
 8000986:	b082      	sub	sp, #8
 8000988:	af00      	add	r7, sp, #0
 800098a:	f643 0348 	movw	r3, #14408	; 0x3848
 800098e:	f6c0 0300 	movt	r3, #2048	; 0x800
 8000992:	607b      	str	r3, [r7, #4]
 8000994:	f240 0300 	movw	r3, #0
 8000998:	f2c2 0300 	movt	r3, #8192	; 0x2000
 800099c:	603b      	str	r3, [r7, #0]
 800099e:	e00b      	b.n	80009b8 <Default_Reset_Handler+0x34>
 80009a0:	687b      	ldr	r3, [r7, #4]
 80009a2:	681a      	ldr	r2, [r3, #0]
 80009a4:	683b      	ldr	r3, [r7, #0]
 80009a6:	601a      	str	r2, [r3, #0]
 80009a8:	683b      	ldr	r3, [r7, #0]
 80009aa:	f103 0304 	add.w	r3, r3, #4
 80009ae:	603b      	str	r3, [r7, #0]
 80009b0:	687b      	ldr	r3, [r7, #4]
 80009b2:	f103 0304 	add.w	r3, r3, #4
 80009b6:	607b      	str	r3, [r7, #4]
 80009b8:	683a      	ldr	r2, [r7, #0]
 80009ba:	f240 0368 	movw	r3, #104	; 0x68
 80009be:	f2c2 0300 	movt	r3, #8192	; 0x2000
 80009c2:	429a      	cmp	r2, r3
 80009c4:	d3ec      	bcc.n	80009a0 <Default_Reset_Handler+0x1c>
 80009c6:	4808      	ldr	r0, [pc, #32]	; (80009e8 <zero_loop+0x1a>)
 80009c8:	4908      	ldr	r1, [pc, #32]	; (80009ec <zero_loop+0x1e>)
 80009ca:	f04f 0200 	mov.w	r2, #0

080009ce <zero_loop>:
 80009ce:	4288      	cmp	r0, r1
 80009d0:	bfb8      	it	lt
 80009d2:	f840 2b04 	strlt.w	r2, [r0], #4
 80009d6:	dbfa      	blt.n	80009ce <zero_loop>
 80009d8:	f000 fa82 	bl	8000ee0 <SystemInit>
 80009dc:	f000 febe 	bl	800175c <main>
 80009e0:	f107 0708 	add.w	r7, r7, #8
 80009e4:	46bd      	mov	sp, r7
 80009e6:	bd80      	pop	{r7, pc}
 80009e8:	20000068 	.word	0x20000068
 80009ec:	200012b0 	.word	0x200012b0

080009f0 <ADC1_IRQHandler>:
 80009f0:	b480      	push	{r7}
 80009f2:	af00      	add	r7, sp, #0
 80009f4:	e7fe      	b.n	80009f4 <ADC1_IRQHandler+0x4>
 80009f6:	bf00      	nop

080009f8 <USART1_IRQHandler>:
 80009f8:	b580      	push	{r7, lr}
 80009fa:	af00      	add	r7, sp, #0
 80009fc:	f240 1370 	movw	r3, #368	; 0x170
 8000a00:	f2c2 0300 	movt	r3, #8192	; 0x2000
 8000a04:	f04f 0200 	mov.w	r2, #0
 8000a08:	601a      	str	r2, [r3, #0]
 8000a0a:	f44f 5060 	mov.w	r0, #14336	; 0x3800
 8000a0e:	f2c4 0001 	movt	r0, #16385	; 0x4001
 8000a12:	f240 5125 	movw	r1, #1317	; 0x525
 8000a16:	f001 fd67 	bl	80024e8 <USART_GetITStatus>
 8000a1a:	4603      	mov	r3, r0
 8000a1c:	2b00      	cmp	r3, #0
 8000a1e:	f000 8195 	beq.w	8000d4c <USART1_IRQHandler+0x354>
 8000a22:	f44f 5060 	mov.w	r0, #14336	; 0x3800
 8000a26:	f2c4 0001 	movt	r0, #16385	; 0x4001
 8000a2a:	f240 5125 	movw	r1, #1317	; 0x525
 8000a2e:	f001 fdc1 	bl	80025b4 <USART_ClearITPendingBit>
 8000a32:	f44f 5060 	mov.w	r0, #14336	; 0x3800
 8000a36:	f2c4 0001 	movt	r0, #16385	; 0x4001
 8000a3a:	f001 fd43 	bl	80024c4 <USART_ReceiveData>
 8000a3e:	4603      	mov	r3, r0
 8000a40:	b2da      	uxtb	r2, r3
 8000a42:	f240 0347 	movw	r3, #71	; 0x47
 8000a46:	f2c2 0300 	movt	r3, #8192	; 0x2000
 8000a4a:	701a      	strb	r2, [r3, #0]
 8000a4c:	f241 2399 	movw	r3, #4761	; 0x1299
 8000a50:	f2c2 0300 	movt	r3, #8192	; 0x2000
 8000a54:	781b      	ldrb	r3, [r3, #0]
 8000a56:	f241 2399 	movw	r3, #4761	; 0x1299
 8000a5a:	f2c2 0300 	movt	r3, #8192	; 0x2000
 8000a5e:	781b      	ldrb	r3, [r3, #0]
 8000a60:	b2db      	uxtb	r3, r3
 8000a62:	2b05      	cmp	r3, #5
 8000a64:	f200 80ac 	bhi.w	8000bc0 <USART1_IRQHandler+0x1c8>
 8000a68:	f241 2399 	movw	r3, #4761	; 0x1299
 8000a6c:	f2c2 0300 	movt	r3, #8192	; 0x2000
 8000a70:	781b      	ldrb	r3, [r3, #0]
 8000a72:	b2db      	uxtb	r3, r3
 8000a74:	2b03      	cmp	r3, #3
 8000a76:	d85d      	bhi.n	8000b34 <USART1_IRQHandler+0x13c>
 8000a78:	a201      	add	r2, pc, #4	; (adr r2, 8000a80 <USART1_IRQHandler+0x88>)
 8000a7a:	f852 f023 	ldr.w	pc, [r2, r3, lsl #2]
 8000a7e:	bf00      	nop
 8000a80:	08000a91 	.word	0x08000a91
 8000a84:	08000ac9 	.word	0x08000ac9
 8000a88:	08000ae9 	.word	0x08000ae9
 8000a8c:	08000b09 	.word	0x08000b09
 8000a90:	f240 0347 	movw	r3, #71	; 0x47
 8000a94:	f2c2 0300 	movt	r3, #8192	; 0x2000
 8000a98:	781b      	ldrb	r3, [r3, #0]
 8000a9a:	b2db      	uxtb	r3, r3
 8000a9c:	2b00      	cmp	r3, #0
 8000a9e:	d04b      	beq.n	8000b38 <USART1_IRQHandler+0x140>
 8000aa0:	f241 2399 	movw	r3, #4761	; 0x1299
 8000aa4:	f2c2 0300 	movt	r3, #8192	; 0x2000
 8000aa8:	f04f 0200 	mov.w	r2, #0
 8000aac:	701a      	strb	r2, [r3, #0]
 8000aae:	f240 136c 	movw	r3, #364	; 0x16c
 8000ab2:	f2c2 0300 	movt	r3, #8192	; 0x2000
 8000ab6:	681b      	ldr	r3, [r3, #0]
 8000ab8:	f103 0201 	add.w	r2, r3, #1
 8000abc:	f240 136c 	movw	r3, #364	; 0x16c
 8000ac0:	f2c2 0300 	movt	r3, #8192	; 0x2000
 8000ac4:	601a      	str	r2, [r3, #0]
 8000ac6:	e03e      	b.n	8000b46 <USART1_IRQHandler+0x14e>
 8000ac8:	f240 0347 	movw	r3, #71	; 0x47
 8000acc:	f2c2 0300 	movt	r3, #8192	; 0x2000
 8000ad0:	781b      	ldrb	r3, [r3, #0]
 8000ad2:	b2db      	uxtb	r3, r3
 8000ad4:	2bd7      	cmp	r3, #215	; 0xd7
 8000ad6:	d031      	beq.n	8000b3c <USART1_IRQHandler+0x144>
 8000ad8:	f241 2399 	movw	r3, #4761	; 0x1299
 8000adc:	f2c2 0300 	movt	r3, #8192	; 0x2000
 8000ae0:	f04f 0200 	mov.w	r2, #0
 8000ae4:	701a      	strb	r2, [r3, #0]
 8000ae6:	e02e      	b.n	8000b46 <USART1_IRQHandler+0x14e>
 8000ae8:	f240 0347 	movw	r3, #71	; 0x47
 8000aec:	f2c2 0300 	movt	r3, #8192	; 0x2000
 8000af0:	781b      	ldrb	r3, [r3, #0]
 8000af2:	b2db      	uxtb	r3, r3
 8000af4:	2b29      	cmp	r3, #41	; 0x29
 8000af6:	d023      	beq.n	8000b40 <USART1_IRQHandler+0x148>
 8000af8:	f241 2399 	movw	r3, #4761	; 0x1299
 8000afc:	f2c2 0300 	movt	r3, #8192	; 0x2000
 8000b00:	f04f 0200 	mov.w	r2, #0
 8000b04:	701a      	strb	r2, [r3, #0]
 8000b06:	e01e      	b.n	8000b46 <USART1_IRQHandler+0x14e>
 8000b08:	f240 0347 	movw	r3, #71	; 0x47
 8000b0c:	f2c2 0300 	movt	r3, #8192	; 0x2000
 8000b10:	781b      	ldrb	r3, [r3, #0]
 8000b12:	b2da      	uxtb	r2, r3
 8000b14:	f240 0344 	movw	r3, #68	; 0x44
 8000b18:	f2c2 0300 	movt	r3, #8192	; 0x2000
 8000b1c:	781b      	ldrb	r3, [r3, #0]
 8000b1e:	b2db      	uxtb	r3, r3
 8000b20:	429a      	cmp	r2, r3
 8000b22:	d00f      	beq.n	8000b44 <USART1_IRQHandler+0x14c>
 8000b24:	f241 2399 	movw	r3, #4761	; 0x1299
 8000b28:	f2c2 0300 	movt	r3, #8192	; 0x2000
 8000b2c:	f04f 0200 	mov.w	r2, #0
 8000b30:	701a      	strb	r2, [r3, #0]
 8000b32:	e008      	b.n	8000b46 <USART1_IRQHandler+0x14e>
 8000b34:	bf00      	nop
 8000b36:	e006      	b.n	8000b46 <USART1_IRQHandler+0x14e>
 8000b38:	bf00      	nop
 8000b3a:	e004      	b.n	8000b46 <USART1_IRQHandler+0x14e>
 8000b3c:	bf00      	nop
 8000b3e:	e002      	b.n	8000b46 <USART1_IRQHandler+0x14e>
 8000b40:	bf00      	nop
 8000b42:	e000      	b.n	8000b46 <USART1_IRQHandler+0x14e>
 8000b44:	bf00      	nop
 8000b46:	f241 2399 	movw	r3, #4761	; 0x1299
 8000b4a:	f2c2 0300 	movt	r3, #8192	; 0x2000
 8000b4e:	781b      	ldrb	r3, [r3, #0]
 8000b50:	b2db      	uxtb	r3, r3
 8000b52:	461a      	mov	r2, r3
 8000b54:	f240 0347 	movw	r3, #71	; 0x47
 8000b58:	f2c2 0300 	movt	r3, #8192	; 0x2000
 8000b5c:	781b      	ldrb	r3, [r3, #0]
 8000b5e:	b2d9      	uxtb	r1, r3
 8000b60:	f240 036c 	movw	r3, #108	; 0x6c
 8000b64:	f2c2 0300 	movt	r3, #8192	; 0x2000
 8000b68:	5499      	strb	r1, [r3, r2]
 8000b6a:	f241 2399 	movw	r3, #4761	; 0x1299
 8000b6e:	f2c2 0300 	movt	r3, #8192	; 0x2000
 8000b72:	781b      	ldrb	r3, [r3, #0]
 8000b74:	b2db      	uxtb	r3, r3
 8000b76:	f103 0301 	add.w	r3, r3, #1
 8000b7a:	b2da      	uxtb	r2, r3
 8000b7c:	f241 2399 	movw	r3, #4761	; 0x1299
 8000b80:	f2c2 0300 	movt	r3, #8192	; 0x2000
 8000b84:	701a      	strb	r2, [r3, #0]
 8000b86:	f241 2399 	movw	r3, #4761	; 0x1299
 8000b8a:	f2c2 0300 	movt	r3, #8192	; 0x2000
 8000b8e:	781b      	ldrb	r3, [r3, #0]
 8000b90:	b2db      	uxtb	r3, r3
 8000b92:	2b06      	cmp	r3, #6
 8000b94:	f040 80da 	bne.w	8000d4c <USART1_IRQHandler+0x354>
 8000b98:	f241 2399 	movw	r3, #4761	; 0x1299
 8000b9c:	f2c2 0300 	movt	r3, #8192	; 0x2000
 8000ba0:	781b      	ldrb	r3, [r3, #0]
 8000ba2:	b2db      	uxtb	r3, r3
 8000ba4:	f103 32ff 	add.w	r2, r3, #4294967295
 8000ba8:	f240 036c 	movw	r3, #108	; 0x6c
 8000bac:	f2c2 0300 	movt	r3, #8192	; 0x2000
 8000bb0:	5c9b      	ldrb	r3, [r3, r2]
 8000bb2:	b2da      	uxtb	r2, r3
 8000bb4:	f240 0368 	movw	r3, #104	; 0x68
 8000bb8:	f2c2 0300 	movt	r3, #8192	; 0x2000
 8000bbc:	701a      	strb	r2, [r3, #0]
 8000bbe:	e0c5      	b.n	8000d4c <USART1_IRQHandler+0x354>
 8000bc0:	f240 0347 	movw	r3, #71	; 0x47
 8000bc4:	f2c2 0300 	movt	r3, #8192	; 0x2000
 8000bc8:	781b      	ldrb	r3, [r3, #0]
 8000bca:	b2db      	uxtb	r3, r3
 8000bcc:	2b00      	cmp	r3, #0
 8000bce:	d029      	beq.n	8000c24 <USART1_IRQHandler+0x22c>
 8000bd0:	2bd7      	cmp	r3, #215	; 0xd7
 8000bd2:	d158      	bne.n	8000c86 <USART1_IRQHandler+0x28e>
 8000bd4:	f241 23ad 	movw	r3, #4781	; 0x12ad
 8000bd8:	f2c2 0300 	movt	r3, #8192	; 0x2000
 8000bdc:	f04f 0201 	mov.w	r2, #1
 8000be0:	701a      	strb	r2, [r3, #0]
 8000be2:	f241 2399 	movw	r3, #4761	; 0x1299
 8000be6:	f2c2 0300 	movt	r3, #8192	; 0x2000
 8000bea:	781b      	ldrb	r3, [r3, #0]
 8000bec:	b2db      	uxtb	r3, r3
 8000bee:	461a      	mov	r2, r3
 8000bf0:	f240 0347 	movw	r3, #71	; 0x47
 8000bf4:	f2c2 0300 	movt	r3, #8192	; 0x2000
 8000bf8:	781b      	ldrb	r3, [r3, #0]
 8000bfa:	b2d9      	uxtb	r1, r3
 8000bfc:	f240 036c 	movw	r3, #108	; 0x6c
 8000c00:	f2c2 0300 	movt	r3, #8192	; 0x2000
 8000c04:	5499      	strb	r1, [r3, r2]
 8000c06:	f241 2399 	movw	r3, #4761	; 0x1299
 8000c0a:	f2c2 0300 	movt	r3, #8192	; 0x2000
 8000c0e:	781b      	ldrb	r3, [r3, #0]
 8000c10:	b2db      	uxtb	r3, r3
 8000c12:	f103 0301 	add.w	r3, r3, #1
 8000c16:	b2da      	uxtb	r2, r3
 8000c18:	f241 2399 	movw	r3, #4761	; 0x1299
 8000c1c:	f2c2 0300 	movt	r3, #8192	; 0x2000
 8000c20:	701a      	strb	r2, [r3, #0]
 8000c22:	e058      	b.n	8000cd6 <USART1_IRQHandler+0x2de>
 8000c24:	f241 23ad 	movw	r3, #4781	; 0x12ad
 8000c28:	f2c2 0300 	movt	r3, #8192	; 0x2000
 8000c2c:	781b      	ldrb	r3, [r3, #0]
 8000c2e:	b2db      	uxtb	r3, r3
 8000c30:	2b00      	cmp	r3, #0
 8000c32:	d120      	bne.n	8000c76 <USART1_IRQHandler+0x27e>
 8000c34:	f241 2399 	movw	r3, #4761	; 0x1299
 8000c38:	f2c2 0300 	movt	r3, #8192	; 0x2000
 8000c3c:	781b      	ldrb	r3, [r3, #0]
 8000c3e:	b2db      	uxtb	r3, r3
 8000c40:	461a      	mov	r2, r3
 8000c42:	f240 0347 	movw	r3, #71	; 0x47
 8000c46:	f2c2 0300 	movt	r3, #8192	; 0x2000
 8000c4a:	781b      	ldrb	r3, [r3, #0]
 8000c4c:	b2d9      	uxtb	r1, r3
 8000c4e:	f240 036c 	movw	r3, #108	; 0x6c
 8000c52:	f2c2 0300 	movt	r3, #8192	; 0x2000
 8000c56:	5499      	strb	r1, [r3, r2]
 8000c58:	f241 2399 	movw	r3, #4761	; 0x1299
 8000c5c:	f2c2 0300 	movt	r3, #8192	; 0x2000
 8000c60:	781b      	ldrb	r3, [r3, #0]
 8000c62:	b2db      	uxtb	r3, r3
 8000c64:	f103 0301 	add.w	r3, r3, #1
 8000c68:	b2da      	uxtb	r2, r3
 8000c6a:	f241 2399 	movw	r3, #4761	; 0x1299
 8000c6e:	f2c2 0300 	movt	r3, #8192	; 0x2000
 8000c72:	701a      	strb	r2, [r3, #0]
 8000c74:	e02f      	b.n	8000cd6 <USART1_IRQHandler+0x2de>
 8000c76:	f241 23ad 	movw	r3, #4781	; 0x12ad
 8000c7a:	f2c2 0300 	movt	r3, #8192	; 0x2000
 8000c7e:	f04f 0200 	mov.w	r2, #0
 8000c82:	701a      	strb	r2, [r3, #0]
 8000c84:	e027      	b.n	8000cd6 <USART1_IRQHandler+0x2de>
 8000c86:	f241 23ad 	movw	r3, #4781	; 0x12ad
 8000c8a:	f2c2 0300 	movt	r3, #8192	; 0x2000
 8000c8e:	f04f 0200 	mov.w	r2, #0
 8000c92:	701a      	strb	r2, [r3, #0]
 8000c94:	f241 2399 	movw	r3, #4761	; 0x1299
 8000c98:	f2c2 0300 	movt	r3, #8192	; 0x2000
 8000c9c:	781b      	ldrb	r3, [r3, #0]
 8000c9e:	b2db      	uxtb	r3, r3
 8000ca0:	461a      	mov	r2, r3
 8000ca2:	f240 0347 	movw	r3, #71	; 0x47
 8000ca6:	f2c2 0300 	movt	r3, #8192	; 0x2000
 8000caa:	781b      	ldrb	r3, [r3, #0]
 8000cac:	b2d9      	uxtb	r1, r3
 8000cae:	f240 036c 	movw	r3, #108	; 0x6c
 8000cb2:	f2c2 0300 	movt	r3, #8192	; 0x2000
 8000cb6:	5499      	strb	r1, [r3, r2]
 8000cb8:	f241 2399 	movw	r3, #4761	; 0x1299
 8000cbc:	f2c2 0300 	movt	r3, #8192	; 0x2000
 8000cc0:	781b      	ldrb	r3, [r3, #0]
 8000cc2:	b2db      	uxtb	r3, r3
 8000cc4:	f103 0301 	add.w	r3, r3, #1
 8000cc8:	b2da      	uxtb	r2, r3
 8000cca:	f241 2399 	movw	r3, #4761	; 0x1299
 8000cce:	f2c2 0300 	movt	r3, #8192	; 0x2000
 8000cd2:	701a      	strb	r2, [r3, #0]
 8000cd4:	bf00      	nop
 8000cd6:	f241 2399 	movw	r3, #4761	; 0x1299
 8000cda:	f2c2 0300 	movt	r3, #8192	; 0x2000
 8000cde:	781b      	ldrb	r3, [r3, #0]
 8000ce0:	b2db      	uxtb	r3, r3
 8000ce2:	461a      	mov	r2, r3
 8000ce4:	f240 0368 	movw	r3, #104	; 0x68
 8000ce8:	f2c2 0300 	movt	r3, #8192	; 0x2000
 8000cec:	781b      	ldrb	r3, [r3, #0]
 8000cee:	b2db      	uxtb	r3, r3
 8000cf0:	f103 0306 	add.w	r3, r3, #6
 8000cf4:	429a      	cmp	r2, r3
 8000cf6:	db29      	blt.n	8000d4c <USART1_IRQHandler+0x354>
 8000cf8:	f44f 5060 	mov.w	r0, #14336	; 0x3800
 8000cfc:	f2c4 0001 	movt	r0, #16385	; 0x4001
 8000d00:	f240 5125 	movw	r1, #1317	; 0x525
 8000d04:	f04f 0200 	mov.w	r2, #0
 8000d08:	f001 fb74 	bl	80023f4 <USART_ITConfig>
 8000d0c:	f241 23a8 	movw	r3, #4776	; 0x12a8
 8000d10:	f2c2 0300 	movt	r3, #8192	; 0x2000
 8000d14:	681b      	ldr	r3, [r3, #0]
 8000d16:	4618      	mov	r0, r3
 8000d18:	f04f 0100 	mov.w	r1, #0
 8000d1c:	f240 1270 	movw	r2, #368	; 0x170
 8000d20:	f2c2 0200 	movt	r2, #8192	; 0x2000
 8000d24:	f04f 0300 	mov.w	r3, #0
 8000d28:	f001 fcec 	bl	8002704 <xQueueGenericSendFromISR>
 8000d2c:	f240 1370 	movw	r3, #368	; 0x170
 8000d30:	f2c2 0300 	movt	r3, #8192	; 0x2000
 8000d34:	681b      	ldr	r3, [r3, #0]
 8000d36:	2b00      	cmp	r3, #0
 8000d38:	d008      	beq.n	8000d4c <USART1_IRQHandler+0x354>
 8000d3a:	f240 1370 	movw	r3, #368	; 0x170
 8000d3e:	f2c2 0300 	movt	r3, #8192	; 0x2000
 8000d42:	681b      	ldr	r3, [r3, #0]
 8000d44:	2b00      	cmp	r3, #0
 8000d46:	d001      	beq.n	8000d4c <USART1_IRQHandler+0x354>
 8000d48:	f001 fdfa 	bl	8002940 <vPortYieldFromISR>
 8000d4c:	f44f 5060 	mov.w	r0, #14336	; 0x3800
 8000d50:	f2c4 0001 	movt	r0, #16385	; 0x4001
 8000d54:	f240 6126 	movw	r1, #1574	; 0x626
 8000d58:	f001 fbc6 	bl	80024e8 <USART_GetITStatus>
 8000d5c:	4603      	mov	r3, r0
 8000d5e:	2b00      	cmp	r3, #0
 8000d60:	f000 80b4 	beq.w	8000ecc <USART1_IRQHandler+0x4d4>
 8000d64:	f44f 5060 	mov.w	r0, #14336	; 0x3800
 8000d68:	f2c4 0001 	movt	r0, #16385	; 0x4001
 8000d6c:	f240 6126 	movw	r1, #1574	; 0x626
 8000d70:	f001 fc20 	bl	80025b4 <USART_ClearITPendingBit>
 8000d74:	f241 2398 	movw	r3, #4760	; 0x1298
 8000d78:	f2c2 0300 	movt	r3, #8192	; 0x2000
 8000d7c:	781b      	ldrb	r3, [r3, #0]
 8000d7e:	b2da      	uxtb	r2, r3
 8000d80:	f241 23a1 	movw	r3, #4769	; 0x12a1
 8000d84:	f2c2 0300 	movt	r3, #8192	; 0x2000
 8000d88:	781b      	ldrb	r3, [r3, #0]
 8000d8a:	b2db      	uxtb	r3, r3
 8000d8c:	429a      	cmp	r2, r3
 8000d8e:	d27e      	bcs.n	8000e8e <USART1_IRQHandler+0x496>
 8000d90:	f241 2398 	movw	r3, #4760	; 0x1298
 8000d94:	f2c2 0300 	movt	r3, #8192	; 0x2000
 8000d98:	781b      	ldrb	r3, [r3, #0]
 8000d9a:	b2db      	uxtb	r3, r3
 8000d9c:	2b02      	cmp	r3, #2
 8000d9e:	d823      	bhi.n	8000de8 <USART1_IRQHandler+0x3f0>
 8000da0:	f241 23a4 	movw	r3, #4772	; 0x12a4
 8000da4:	f2c2 0300 	movt	r3, #8192	; 0x2000
 8000da8:	681a      	ldr	r2, [r3, #0]
 8000daa:	f241 2398 	movw	r3, #4760	; 0x1298
 8000dae:	f2c2 0300 	movt	r3, #8192	; 0x2000
 8000db2:	781b      	ldrb	r3, [r3, #0]
 8000db4:	b2db      	uxtb	r3, r3
 8000db6:	18d3      	adds	r3, r2, r3
 8000db8:	781b      	ldrb	r3, [r3, #0]
 8000dba:	b2db      	uxtb	r3, r3
 8000dbc:	f44f 5060 	mov.w	r0, #14336	; 0x3800
 8000dc0:	f2c4 0001 	movt	r0, #16385	; 0x4001
 8000dc4:	4619      	mov	r1, r3
 8000dc6:	f001 fb69 	bl	800249c <USART_SendData>
 8000dca:	f241 2398 	movw	r3, #4760	; 0x1298
 8000dce:	f2c2 0300 	movt	r3, #8192	; 0x2000
 8000dd2:	781b      	ldrb	r3, [r3, #0]
 8000dd4:	b2db      	uxtb	r3, r3
 8000dd6:	f103 0301 	add.w	r3, r3, #1
 8000dda:	b2da      	uxtb	r2, r3
 8000ddc:	f241 2398 	movw	r3, #4760	; 0x1298
 8000de0:	f2c2 0300 	movt	r3, #8192	; 0x2000
 8000de4:	701a      	strb	r2, [r3, #0]
 8000de6:	e071      	b.n	8000ecc <USART1_IRQHandler+0x4d4>
 8000de8:	f241 23ad 	movw	r3, #4781	; 0x12ad
 8000dec:	f2c2 0300 	movt	r3, #8192	; 0x2000
 8000df0:	781b      	ldrb	r3, [r3, #0]
 8000df2:	b2db      	uxtb	r3, r3
 8000df4:	2b00      	cmp	r3, #0
 8000df6:	d13a      	bne.n	8000e6e <USART1_IRQHandler+0x476>
 8000df8:	f241 23a4 	movw	r3, #4772	; 0x12a4
 8000dfc:	f2c2 0300 	movt	r3, #8192	; 0x2000
 8000e00:	681a      	ldr	r2, [r3, #0]
 8000e02:	f241 2398 	movw	r3, #4760	; 0x1298
 8000e06:	f2c2 0300 	movt	r3, #8192	; 0x2000
 8000e0a:	781b      	ldrb	r3, [r3, #0]
 8000e0c:	b2db      	uxtb	r3, r3
 8000e0e:	18d3      	adds	r3, r2, r3
 8000e10:	781b      	ldrb	r3, [r3, #0]
 8000e12:	b2db      	uxtb	r3, r3
 8000e14:	2bd7      	cmp	r3, #215	; 0xd7
 8000e16:	d106      	bne.n	8000e26 <USART1_IRQHandler+0x42e>
 8000e18:	f241 23ad 	movw	r3, #4781	; 0x12ad
 8000e1c:	f2c2 0300 	movt	r3, #8192	; 0x2000
 8000e20:	f04f 0201 	mov.w	r2, #1
 8000e24:	701a      	strb	r2, [r3, #0]
 8000e26:	f241 23a4 	movw	r3, #4772	; 0x12a4
 8000e2a:	f2c2 0300 	movt	r3, #8192	; 0x2000
 8000e2e:	681a      	ldr	r2, [r3, #0]
 8000e30:	f241 2398 	movw	r3, #4760	; 0x1298
 8000e34:	f2c2 0300 	movt	r3, #8192	; 0x2000
 8000e38:	781b      	ldrb	r3, [r3, #0]
 8000e3a:	b2db      	uxtb	r3, r3
 8000e3c:	18d3      	adds	r3, r2, r3
 8000e3e:	781b      	ldrb	r3, [r3, #0]
 8000e40:	b2db      	uxtb	r3, r3
 8000e42:	f44f 5060 	mov.w	r0, #14336	; 0x3800
 8000e46:	f2c4 0001 	movt	r0, #16385	; 0x4001
 8000e4a:	4619      	mov	r1, r3
 8000e4c:	f001 fb26 	bl	800249c <USART_SendData>
 8000e50:	f241 2398 	movw	r3, #4760	; 0x1298
 8000e54:	f2c2 0300 	movt	r3, #8192	; 0x2000
 8000e58:	781b      	ldrb	r3, [r3, #0]
 8000e5a:	b2db      	uxtb	r3, r3
 8000e5c:	f103 0301 	add.w	r3, r3, #1
 8000e60:	b2da      	uxtb	r2, r3
 8000e62:	f241 2398 	movw	r3, #4760	; 0x1298
 8000e66:	f2c2 0300 	movt	r3, #8192	; 0x2000
 8000e6a:	701a      	strb	r2, [r3, #0]
 8000e6c:	e02e      	b.n	8000ecc <USART1_IRQHandler+0x4d4>
 8000e6e:	f44f 5060 	mov.w	r0, #14336	; 0x3800
 8000e72:	f2c4 0001 	movt	r0, #16385	; 0x4001
 8000e76:	f04f 0100 	mov.w	r1, #0
 8000e7a:	f001 fb0f 	bl	800249c <USART_SendData>
 8000e7e:	f241 23ad 	movw	r3, #4781	; 0x12ad
 8000e82:	f2c2 0300 	movt	r3, #8192	; 0x2000
 8000e86:	f04f 0200 	mov.w	r2, #0
 8000e8a:	701a      	strb	r2, [r3, #0]
 8000e8c:	e01e      	b.n	8000ecc <USART1_IRQHandler+0x4d4>
 8000e8e:	f241 2398 	movw	r3, #4760	; 0x1298
 8000e92:	f2c2 0300 	movt	r3, #8192	; 0x2000
 8000e96:	f04f 0200 	mov.w	r2, #0
 8000e9a:	701a      	strb	r2, [r3, #0]
 8000e9c:	f241 2399 	movw	r3, #4761	; 0x1299
 8000ea0:	f2c2 0300 	movt	r3, #8192	; 0x2000
 8000ea4:	f04f 0200 	mov.w	r2, #0
 8000ea8:	701a      	strb	r2, [r3, #0]
 8000eaa:	f241 23ad 	movw	r3, #4781	; 0x12ad
 8000eae:	f2c2 0300 	movt	r3, #8192	; 0x2000
 8000eb2:	f04f 0200 	mov.w	r2, #0
 8000eb6:	701a      	strb	r2, [r3, #0]
 8000eb8:	f44f 5060 	mov.w	r0, #14336	; 0x3800
 8000ebc:	f2c4 0001 	movt	r0, #16385	; 0x4001
 8000ec0:	f240 5125 	movw	r1, #1317	; 0x525
 8000ec4:	f04f 0201 	mov.w	r2, #1
 8000ec8:	f001 fa94 	bl	80023f4 <USART_ITConfig>
 8000ecc:	f240 1370 	movw	r3, #368	; 0x170
 8000ed0:	f2c2 0300 	movt	r3, #8192	; 0x2000
 8000ed4:	681b      	ldr	r3, [r3, #0]
 8000ed6:	2b00      	cmp	r3, #0
 8000ed8:	d001      	beq.n	8000ede <USART1_IRQHandler+0x4e6>
 8000eda:	f001 fd31 	bl	8002940 <vPortYieldFromISR>
 8000ede:	bd80      	pop	{r7, pc}

08000ee0 <SystemInit>:
 8000ee0:	b580      	push	{r7, lr}
 8000ee2:	af00      	add	r7, sp, #0
 8000ee4:	f44f 5380 	mov.w	r3, #4096	; 0x1000
 8000ee8:	f2c4 0302 	movt	r3, #16386	; 0x4002
 8000eec:	f44f 5280 	mov.w	r2, #4096	; 0x1000
 8000ef0:	f2c4 0202 	movt	r2, #16386	; 0x4002
 8000ef4:	6812      	ldr	r2, [r2, #0]
 8000ef6:	f042 0201 	orr.w	r2, r2, #1
 8000efa:	601a      	str	r2, [r3, #0]
 8000efc:	f44f 5280 	mov.w	r2, #4096	; 0x1000
 8000f00:	f2c4 0202 	movt	r2, #16386	; 0x4002
 8000f04:	f44f 5380 	mov.w	r3, #4096	; 0x1000
 8000f08:	f2c4 0302 	movt	r3, #16386	; 0x4002
 8000f0c:	685b      	ldr	r3, [r3, #4]
 8000f0e:	4619      	mov	r1, r3
 8000f10:	f04f 0300 	mov.w	r3, #0
 8000f14:	f6cf 03ff 	movt	r3, #63743	; 0xf8ff
 8000f18:	ea01 0303 	and.w	r3, r1, r3
 8000f1c:	6053      	str	r3, [r2, #4]
 8000f1e:	f44f 5380 	mov.w	r3, #4096	; 0x1000
 8000f22:	f2c4 0302 	movt	r3, #16386	; 0x4002
 8000f26:	f44f 5280 	mov.w	r2, #4096	; 0x1000
 8000f2a:	f2c4 0202 	movt	r2, #16386	; 0x4002
 8000f2e:	6812      	ldr	r2, [r2, #0]
 8000f30:	f022 7284 	bic.w	r2, r2, #17301504	; 0x1080000
 8000f34:	f422 3280 	bic.w	r2, r2, #65536	; 0x10000
 8000f38:	601a      	str	r2, [r3, #0]
 8000f3a:	f44f 5380 	mov.w	r3, #4096	; 0x1000
 8000f3e:	f2c4 0302 	movt	r3, #16386	; 0x4002
 8000f42:	f44f 5280 	mov.w	r2, #4096	; 0x1000
 8000f46:	f2c4 0202 	movt	r2, #16386	; 0x4002
 8000f4a:	6812      	ldr	r2, [r2, #0]
 8000f4c:	f422 2280 	bic.w	r2, r2, #262144	; 0x40000
 8000f50:	601a      	str	r2, [r3, #0]
 8000f52:	f44f 5380 	mov.w	r3, #4096	; 0x1000
 8000f56:	f2c4 0302 	movt	r3, #16386	; 0x4002
 8000f5a:	f44f 5280 	mov.w	r2, #4096	; 0x1000
 8000f5e:	f2c4 0202 	movt	r2, #16386	; 0x4002
 8000f62:	6852      	ldr	r2, [r2, #4]
 8000f64:	f422 02fe 	bic.w	r2, r2, #8323072	; 0x7f0000
 8000f68:	605a      	str	r2, [r3, #4]
 8000f6a:	f44f 5380 	mov.w	r3, #4096	; 0x1000
 8000f6e:	f2c4 0302 	movt	r3, #16386	; 0x4002
 8000f72:	f44f 021f 	mov.w	r2, #10420224	; 0x9f0000
 8000f76:	609a      	str	r2, [r3, #8]
 8000f78:	f44f 5380 	mov.w	r3, #4096	; 0x1000
 8000f7c:	f2c4 0302 	movt	r3, #16386	; 0x4002
 8000f80:	f04f 0200 	mov.w	r2, #0
 8000f84:	62da      	str	r2, [r3, #44]	; 0x2c
 8000f86:	f000 f809 	bl	8000f9c <SetSysClock>
 8000f8a:	f44f 436d 	mov.w	r3, #60672	; 0xed00
 8000f8e:	f2ce 0300 	movt	r3, #57344	; 0xe000
 8000f92:	f04f 6200 	mov.w	r2, #134217728	; 0x8000000
 8000f96:	609a      	str	r2, [r3, #8]
 8000f98:	bd80      	pop	{r7, pc}
 8000f9a:	bf00      	nop

08000f9c <SetSysClock>:
 8000f9c:	b580      	push	{r7, lr}
 8000f9e:	af00      	add	r7, sp, #0
 8000fa0:	f000 f802 	bl	8000fa8 <SetSysClockTo24>
 8000fa4:	bd80      	pop	{r7, pc}
 8000fa6:	bf00      	nop

08000fa8 <SetSysClockTo24>:
 8000fa8:	b480      	push	{r7}
 8000faa:	b083      	sub	sp, #12
 8000fac:	af00      	add	r7, sp, #0
 8000fae:	f04f 0300 	mov.w	r3, #0
 8000fb2:	607b      	str	r3, [r7, #4]
 8000fb4:	f04f 0300 	mov.w	r3, #0
 8000fb8:	603b      	str	r3, [r7, #0]
 8000fba:	f44f 5380 	mov.w	r3, #4096	; 0x1000
 8000fbe:	f2c4 0302 	movt	r3, #16386	; 0x4002
 8000fc2:	f44f 5280 	mov.w	r2, #4096	; 0x1000
 8000fc6:	f2c4 0202 	movt	r2, #16386	; 0x4002
 8000fca:	6812      	ldr	r2, [r2, #0]
 8000fcc:	f442 3280 	orr.w	r2, r2, #65536	; 0x10000
 8000fd0:	601a      	str	r2, [r3, #0]
 8000fd2:	f44f 5380 	mov.w	r3, #4096	; 0x1000
 8000fd6:	f2c4 0302 	movt	r3, #16386	; 0x4002
 8000fda:	681b      	ldr	r3, [r3, #0]
 8000fdc:	f403 3300 	and.w	r3, r3, #131072	; 0x20000
 8000fe0:	603b      	str	r3, [r7, #0]
 8000fe2:	687b      	ldr	r3, [r7, #4]
 8000fe4:	f103 0301 	add.w	r3, r3, #1
 8000fe8:	607b      	str	r3, [r7, #4]
 8000fea:	683b      	ldr	r3, [r7, #0]
 8000fec:	2b00      	cmp	r3, #0
 8000fee:	d103      	bne.n	8000ff8 <SetSysClockTo24+0x50>
 8000ff0:	687b      	ldr	r3, [r7, #4]
 8000ff2:	f5b3 6fa0 	cmp.w	r3, #1280	; 0x500
 8000ff6:	d1ec      	bne.n	8000fd2 <SetSysClockTo24+0x2a>
 8000ff8:	f44f 5380 	mov.w	r3, #4096	; 0x1000
 8000ffc:	f2c4 0302 	movt	r3, #16386	; 0x4002
 8001000:	681b      	ldr	r3, [r3, #0]
 8001002:	f403 3300 	and.w	r3, r3, #131072	; 0x20000
 8001006:	2b00      	cmp	r3, #0
 8001008:	d003      	beq.n	8001012 <SetSysClockTo24+0x6a>
 800100a:	f04f 0301 	mov.w	r3, #1
 800100e:	603b      	str	r3, [r7, #0]
 8001010:	e002      	b.n	8001018 <SetSysClockTo24+0x70>
 8001012:	f04f 0300 	mov.w	r3, #0
 8001016:	603b      	str	r3, [r7, #0]
 8001018:	683b      	ldr	r3, [r7, #0]
 800101a:	2b01      	cmp	r3, #1
 800101c:	d16d      	bne.n	80010fa <SetSysClockTo24+0x152>
 800101e:	f44f 5380 	mov.w	r3, #4096	; 0x1000
 8001022:	f2c4 0302 	movt	r3, #16386	; 0x4002
 8001026:	f44f 5280 	mov.w	r2, #4096	; 0x1000
 800102a:	f2c4 0202 	movt	r2, #16386	; 0x4002
 800102e:	6852      	ldr	r2, [r2, #4]
 8001030:	605a      	str	r2, [r3, #4]
 8001032:	f44f 5380 	mov.w	r3, #4096	; 0x1000
 8001036:	f2c4 0302 	movt	r3, #16386	; 0x4002
 800103a:	f44f 5280 	mov.w	r2, #4096	; 0x1000
 800103e:	f2c4 0202 	movt	r2, #16386	; 0x4002
 8001042:	6852      	ldr	r2, [r2, #4]
 8001044:	605a      	str	r2, [r3, #4]
 8001046:	f44f 5380 	mov.w	r3, #4096	; 0x1000
 800104a:	f2c4 0302 	movt	r3, #16386	; 0x4002
 800104e:	f44f 5280 	mov.w	r2, #4096	; 0x1000
 8001052:	f2c4 0202 	movt	r2, #16386	; 0x4002
 8001056:	6852      	ldr	r2, [r2, #4]
 8001058:	605a      	str	r2, [r3, #4]
 800105a:	f44f 5380 	mov.w	r3, #4096	; 0x1000
 800105e:	f2c4 0302 	movt	r3, #16386	; 0x4002
 8001062:	f44f 5280 	mov.w	r2, #4096	; 0x1000
 8001066:	f2c4 0202 	movt	r2, #16386	; 0x4002
 800106a:	6852      	ldr	r2, [r2, #4]
 800106c:	f422 127c 	bic.w	r2, r2, #4128768	; 0x3f0000
 8001070:	605a      	str	r2, [r3, #4]
 8001072:	f44f 5380 	mov.w	r3, #4096	; 0x1000
 8001076:	f2c4 0302 	movt	r3, #16386	; 0x4002
 800107a:	f44f 5280 	mov.w	r2, #4096	; 0x1000
 800107e:	f2c4 0202 	movt	r2, #16386	; 0x4002
 8001082:	6852      	ldr	r2, [r2, #4]
 8001084:	f442 1298 	orr.w	r2, r2, #1245184	; 0x130000
 8001088:	605a      	str	r2, [r3, #4]
 800108a:	f44f 5380 	mov.w	r3, #4096	; 0x1000
 800108e:	f2c4 0302 	movt	r3, #16386	; 0x4002
 8001092:	f44f 5280 	mov.w	r2, #4096	; 0x1000
 8001096:	f2c4 0202 	movt	r2, #16386	; 0x4002
 800109a:	6812      	ldr	r2, [r2, #0]
 800109c:	f042 7280 	orr.w	r2, r2, #16777216	; 0x1000000
 80010a0:	601a      	str	r2, [r3, #0]
 80010a2:	bf00      	nop
 80010a4:	f44f 5380 	mov.w	r3, #4096	; 0x1000
 80010a8:	f2c4 0302 	movt	r3, #16386	; 0x4002
 80010ac:	681b      	ldr	r3, [r3, #0]
 80010ae:	f003 7300 	and.w	r3, r3, #33554432	; 0x2000000
 80010b2:	2b00      	cmp	r3, #0
 80010b4:	d0f6      	beq.n	80010a4 <SetSysClockTo24+0xfc>
 80010b6:	f44f 5380 	mov.w	r3, #4096	; 0x1000
 80010ba:	f2c4 0302 	movt	r3, #16386	; 0x4002
 80010be:	f44f 5280 	mov.w	r2, #4096	; 0x1000
 80010c2:	f2c4 0202 	movt	r2, #16386	; 0x4002
 80010c6:	6852      	ldr	r2, [r2, #4]
 80010c8:	f022 0203 	bic.w	r2, r2, #3
 80010cc:	605a      	str	r2, [r3, #4]
 80010ce:	f44f 5380 	mov.w	r3, #4096	; 0x1000
 80010d2:	f2c4 0302 	movt	r3, #16386	; 0x4002
 80010d6:	f44f 5280 	mov.w	r2, #4096	; 0x1000
 80010da:	f2c4 0202 	movt	r2, #16386	; 0x4002
 80010de:	6852      	ldr	r2, [r2, #4]
 80010e0:	f042 0202 	orr.w	r2, r2, #2
 80010e4:	605a      	str	r2, [r3, #4]
 80010e6:	bf00      	nop
 80010e8:	f44f 5380 	mov.w	r3, #4096	; 0x1000
 80010ec:	f2c4 0302 	movt	r3, #16386	; 0x4002
 80010f0:	685b      	ldr	r3, [r3, #4]
 80010f2:	f003 030c 	and.w	r3, r3, #12
 80010f6:	2b08      	cmp	r3, #8
 80010f8:	d1f6      	bne.n	80010e8 <SetSysClockTo24+0x140>
 80010fa:	f107 070c 	add.w	r7, r7, #12
 80010fe:	46bd      	mov	sp, r7
 8001100:	bc80      	pop	{r7}
 8001102:	4770      	bx	lr

08001104 <PWM_Init>:
 8001104:	b580      	push	{r7, lr}
 8001106:	b088      	sub	sp, #32
 8001108:	af00      	add	r7, sp, #0
 800110a:	f04f 0011 	mov.w	r0, #17
 800110e:	f04f 0101 	mov.w	r1, #1
 8001112:	f000 fb35 	bl	8001780 <RCC_APB2PeriphClockCmd>
 8001116:	f04f 0002 	mov.w	r0, #2
 800111a:	f04f 0101 	mov.w	r1, #1
 800111e:	f000 fb5d 	bl	80017dc <RCC_APB1PeriphClockCmd>
 8001122:	f44f 6040 	mov.w	r0, #3072	; 0xc00
 8001126:	f2c0 001a 	movt	r0, #26
 800112a:	f04f 0101 	mov.w	r1, #1
 800112e:	f000 f9e5 	bl	80014fc <GPIO_PinRemapConfig>
 8001132:	f107 0314 	add.w	r3, r7, #20
 8001136:	4618      	mov	r0, r3
 8001138:	f7ff fac4 	bl	80006c4 <TIM_TimeBaseStructInit>
 800113c:	f240 0348 	movw	r3, #72	; 0x48
 8001140:	f2c2 0300 	movt	r3, #8192	; 0x2000
 8001144:	681a      	ldr	r2, [r3, #0]
 8001146:	f641 5385 	movw	r3, #7557	; 0x1d85
 800114a:	f6c6 73d9 	movt	r3, #28633	; 0x6fd9
 800114e:	fba3 1302 	umull	r1, r3, r3, r2
 8001152:	ea4f 4353 	mov.w	r3, r3, lsr #17
 8001156:	b29b      	uxth	r3, r3
 8001158:	f103 33ff 	add.w	r3, r3, #4294967295
 800115c:	b29b      	uxth	r3, r3
 800115e:	82bb      	strh	r3, [r7, #20]
 8001160:	f04f 031f 	mov.w	r3, #31
 8001164:	833b      	strh	r3, [r7, #24]
 8001166:	f04f 0300 	mov.w	r3, #0
 800116a:	837b      	strh	r3, [r7, #26]
 800116c:	f04f 0300 	mov.w	r3, #0
 8001170:	82fb      	strh	r3, [r7, #22]
 8001172:	f107 0314 	add.w	r3, r7, #20
 8001176:	f44f 6080 	mov.w	r0, #1024	; 0x400
 800117a:	f2c4 0000 	movt	r0, #16384	; 0x4000
 800117e:	4619      	mov	r1, r3
 8001180:	f7fe ffd0 	bl	8000124 <TIM_TimeBaseInit>
 8001184:	f04f 0360 	mov.w	r3, #96	; 0x60
 8001188:	80bb      	strh	r3, [r7, #4]
 800118a:	f04f 0301 	mov.w	r3, #1
 800118e:	80fb      	strh	r3, [r7, #6]
 8001190:	f04f 031d 	mov.w	r3, #29
 8001194:	817b      	strh	r3, [r7, #10]
 8001196:	f04f 0302 	mov.w	r3, #2
 800119a:	81bb      	strh	r3, [r7, #12]
 800119c:	f107 0304 	add.w	r3, r7, #4
 80011a0:	f44f 6080 	mov.w	r0, #1024	; 0x400
 80011a4:	f2c4 0000 	movt	r0, #16384	; 0x4000
 80011a8:	4619      	mov	r1, r3
 80011aa:	f7ff f84b 	bl	8000244 <TIM_OC1Init>
 80011ae:	f04f 0360 	mov.w	r3, #96	; 0x60
 80011b2:	80bb      	strh	r3, [r7, #4]
 80011b4:	f04f 0301 	mov.w	r3, #1
 80011b8:	80fb      	strh	r3, [r7, #6]
 80011ba:	f04f 031d 	mov.w	r3, #29
 80011be:	817b      	strh	r3, [r7, #10]
 80011c0:	f04f 0302 	mov.w	r3, #2
 80011c4:	81bb      	strh	r3, [r7, #12]
 80011c6:	f107 0304 	add.w	r3, r7, #4
 80011ca:	f44f 6080 	mov.w	r0, #1024	; 0x400
 80011ce:	f2c4 0000 	movt	r0, #16384	; 0x4000
 80011d2:	4619      	mov	r1, r3
 80011d4:	f7ff f8d0 	bl	8000378 <TIM_OC2Init>
 80011d8:	f04f 0360 	mov.w	r3, #96	; 0x60
 80011dc:	80bb      	strh	r3, [r7, #4]
 80011de:	f04f 0301 	mov.w	r3, #1
 80011e2:	80fb      	strh	r3, [r7, #6]
 80011e4:	f04f 031d 	mov.w	r3, #29
 80011e8:	817b      	strh	r3, [r7, #10]
 80011ea:	f04f 0302 	mov.w	r3, #2
 80011ee:	81bb      	strh	r3, [r7, #12]
 80011f0:	f107 0304 	add.w	r3, r7, #4
 80011f4:	f44f 6080 	mov.w	r0, #1024	; 0x400
 80011f8:	f2c4 0000 	movt	r0, #16384	; 0x4000
 80011fc:	4619      	mov	r1, r3
 80011fe:	f7ff f955 	bl	80004ac <TIM_OC3Init>
 8001202:	f04f 0360 	mov.w	r3, #96	; 0x60
 8001206:	80bb      	strh	r3, [r7, #4]
 8001208:	f04f 0301 	mov.w	r3, #1
 800120c:	80fb      	strh	r3, [r7, #6]
 800120e:	f04f 031d 	mov.w	r3, #29
 8001212:	817b      	strh	r3, [r7, #10]
 8001214:	f04f 0302 	mov.w	r3, #2
 8001218:	81bb      	strh	r3, [r7, #12]
 800121a:	f107 0304 	add.w	r3, r7, #4
 800121e:	f44f 6080 	mov.w	r0, #1024	; 0x400
 8001222:	f2c4 0000 	movt	r0, #16384	; 0x4000
 8001226:	4619      	mov	r1, r3
 8001228:	f7ff f9d8 	bl	80005dc <TIM_OC4Init>
 800122c:	f44f 6080 	mov.w	r0, #1024	; 0x400
 8001230:	f2c4 0000 	movt	r0, #16384	; 0x4000
 8001234:	f04f 0108 	mov.w	r1, #8
 8001238:	f7ff fb14 	bl	8000864 <TIM_OC1PreloadConfig>
 800123c:	f44f 6080 	mov.w	r0, #1024	; 0x400
 8001240:	f2c4 0000 	movt	r0, #16384	; 0x4000
 8001244:	f04f 0108 	mov.w	r1, #8
 8001248:	f7ff fb2a 	bl	80008a0 <TIM_OC2PreloadConfig>
 800124c:	f44f 6080 	mov.w	r0, #1024	; 0x400
 8001250:	f2c4 0000 	movt	r0, #16384	; 0x4000
 8001254:	f04f 0101 	mov.w	r1, #1
 8001258:	f7ff fae4 	bl	8000824 <TIM_ARRPreloadConfig>
 800125c:	f44f 6080 	mov.w	r0, #1024	; 0x400
 8001260:	f2c4 0000 	movt	r0, #16384	; 0x4000
 8001264:	f04f 0101 	mov.w	r1, #1
 8001268:	f7ff fa4a 	bl	8000700 <TIM_Cmd>
 800126c:	f04f 0340 	mov.w	r3, #64	; 0x40
 8001270:	803b      	strh	r3, [r7, #0]
 8001272:	f04f 0318 	mov.w	r3, #24
 8001276:	70fb      	strb	r3, [r7, #3]
 8001278:	f04f 0303 	mov.w	r3, #3
 800127c:	70bb      	strb	r3, [r7, #2]
 800127e:	463b      	mov	r3, r7
 8001280:	f44f 5080 	mov.w	r0, #4096	; 0x1000
 8001284:	f2c4 0001 	movt	r0, #16385	; 0x4001
 8001288:	4619      	mov	r1, r3
 800128a:	f000 f837 	bl	80012fc <GPIO_Init>
 800128e:	f04f 0380 	mov.w	r3, #128	; 0x80
 8001292:	803b      	strh	r3, [r7, #0]
 8001294:	f04f 0318 	mov.w	r3, #24
 8001298:	70fb      	strb	r3, [r7, #3]
 800129a:	f04f 0303 	mov.w	r3, #3
 800129e:	70bb      	strb	r3, [r7, #2]
 80012a0:	463b      	mov	r3, r7
 80012a2:	f44f 5080 	mov.w	r0, #4096	; 0x1000
 80012a6:	f2c4 0001 	movt	r0, #16385	; 0x4001
 80012aa:	4619      	mov	r1, r3
 80012ac:	f000 f826 	bl	80012fc <GPIO_Init>
 80012b0:	f44f 7380 	mov.w	r3, #256	; 0x100
 80012b4:	803b      	strh	r3, [r7, #0]
 80012b6:	f04f 0318 	mov.w	r3, #24
 80012ba:	70fb      	strb	r3, [r7, #3]
 80012bc:	f04f 0303 	mov.w	r3, #3
 80012c0:	70bb      	strb	r3, [r7, #2]
 80012c2:	463b      	mov	r3, r7
 80012c4:	f44f 5080 	mov.w	r0, #4096	; 0x1000
 80012c8:	f2c4 0001 	movt	r0, #16385	; 0x4001
 80012cc:	4619      	mov	r1, r3
 80012ce:	f000 f815 	bl	80012fc <GPIO_Init>
 80012d2:	f44f 7300 	mov.w	r3, #512	; 0x200
 80012d6:	803b      	strh	r3, [r7, #0]
 80012d8:	f04f 0318 	mov.w	r3, #24
 80012dc:	70fb      	strb	r3, [r7, #3]
 80012de:	f04f 0303 	mov.w	r3, #3
 80012e2:	70bb      	strb	r3, [r7, #2]
 80012e4:	463b      	mov	r3, r7
 80012e6:	f44f 5080 	mov.w	r0, #4096	; 0x1000
 80012ea:	f2c4 0001 	movt	r0, #16385	; 0x4001
 80012ee:	4619      	mov	r1, r3
 80012f0:	f000 f804 	bl	80012fc <GPIO_Init>
 80012f4:	f107 0720 	add.w	r7, r7, #32
 80012f8:	46bd      	mov	sp, r7
 80012fa:	bd80      	pop	{r7, pc}

080012fc <GPIO_Init>:
 80012fc:	b480      	push	{r7}
 80012fe:	b089      	sub	sp, #36	; 0x24
 8001300:	af00      	add	r7, sp, #0
 8001302:	6078      	str	r0, [r7, #4]
 8001304:	6039      	str	r1, [r7, #0]
 8001306:	f04f 0300 	mov.w	r3, #0
 800130a:	61fb      	str	r3, [r7, #28]
 800130c:	f04f 0300 	mov.w	r3, #0
 8001310:	613b      	str	r3, [r7, #16]
 8001312:	f04f 0300 	mov.w	r3, #0
 8001316:	61bb      	str	r3, [r7, #24]
 8001318:	f04f 0300 	mov.w	r3, #0
 800131c:	60fb      	str	r3, [r7, #12]
 800131e:	f04f 0300 	mov.w	r3, #0
 8001322:	617b      	str	r3, [r7, #20]
 8001324:	f04f 0300 	mov.w	r3, #0
 8001328:	60bb      	str	r3, [r7, #8]
 800132a:	683b      	ldr	r3, [r7, #0]
 800132c:	78db      	ldrb	r3, [r3, #3]
 800132e:	f003 030f 	and.w	r3, r3, #15
 8001332:	61fb      	str	r3, [r7, #28]
 8001334:	683b      	ldr	r3, [r7, #0]
 8001336:	78db      	ldrb	r3, [r3, #3]
 8001338:	f003 0310 	and.w	r3, r3, #16
 800133c:	2b00      	cmp	r3, #0
 800133e:	d005      	beq.n	800134c <GPIO_Init+0x50>
 8001340:	683b      	ldr	r3, [r7, #0]
 8001342:	789b      	ldrb	r3, [r3, #2]
 8001344:	69fa      	ldr	r2, [r7, #28]
 8001346:	ea42 0303 	orr.w	r3, r2, r3
 800134a:	61fb      	str	r3, [r7, #28]
 800134c:	683b      	ldr	r3, [r7, #0]
 800134e:	881b      	ldrh	r3, [r3, #0]
 8001350:	f003 03ff 	and.w	r3, r3, #255	; 0xff
 8001354:	2b00      	cmp	r3, #0
 8001356:	d051      	beq.n	80013fc <GPIO_Init+0x100>
 8001358:	687b      	ldr	r3, [r7, #4]
 800135a:	681b      	ldr	r3, [r3, #0]
 800135c:	617b      	str	r3, [r7, #20]
 800135e:	f04f 0300 	mov.w	r3, #0
 8001362:	61bb      	str	r3, [r7, #24]
 8001364:	e044      	b.n	80013f0 <GPIO_Init+0xf4>
 8001366:	69bb      	ldr	r3, [r7, #24]
 8001368:	f04f 0201 	mov.w	r2, #1
 800136c:	fa02 f303 	lsl.w	r3, r2, r3
 8001370:	60fb      	str	r3, [r7, #12]
 8001372:	683b      	ldr	r3, [r7, #0]
 8001374:	881b      	ldrh	r3, [r3, #0]
 8001376:	461a      	mov	r2, r3
 8001378:	68fb      	ldr	r3, [r7, #12]
 800137a:	ea02 0303 	and.w	r3, r2, r3
 800137e:	613b      	str	r3, [r7, #16]
 8001380:	693a      	ldr	r2, [r7, #16]
 8001382:	68fb      	ldr	r3, [r7, #12]
 8001384:	429a      	cmp	r2, r3
 8001386:	d12f      	bne.n	80013e8 <GPIO_Init+0xec>
 8001388:	69bb      	ldr	r3, [r7, #24]
 800138a:	ea4f 0383 	mov.w	r3, r3, lsl #2
 800138e:	60fb      	str	r3, [r7, #12]
 8001390:	68fb      	ldr	r3, [r7, #12]
 8001392:	f04f 020f 	mov.w	r2, #15
 8001396:	fa02 f303 	lsl.w	r3, r2, r3
 800139a:	60bb      	str	r3, [r7, #8]
 800139c:	68bb      	ldr	r3, [r7, #8]
 800139e:	ea6f 0303 	mvn.w	r3, r3
 80013a2:	697a      	ldr	r2, [r7, #20]
 80013a4:	ea02 0303 	and.w	r3, r2, r3
 80013a8:	617b      	str	r3, [r7, #20]
 80013aa:	68fb      	ldr	r3, [r7, #12]
 80013ac:	69fa      	ldr	r2, [r7, #28]
 80013ae:	fa02 f303 	lsl.w	r3, r2, r3
 80013b2:	697a      	ldr	r2, [r7, #20]
 80013b4:	ea42 0303 	orr.w	r3, r2, r3
 80013b8:	617b      	str	r3, [r7, #20]
 80013ba:	683b      	ldr	r3, [r7, #0]
 80013bc:	78db      	ldrb	r3, [r3, #3]
 80013be:	2b28      	cmp	r3, #40	; 0x28
 80013c0:	d107      	bne.n	80013d2 <GPIO_Init+0xd6>
 80013c2:	69bb      	ldr	r3, [r7, #24]
 80013c4:	f04f 0201 	mov.w	r2, #1
 80013c8:	fa02 f203 	lsl.w	r2, r2, r3
 80013cc:	687b      	ldr	r3, [r7, #4]
 80013ce:	615a      	str	r2, [r3, #20]
 80013d0:	e00a      	b.n	80013e8 <GPIO_Init+0xec>
 80013d2:	683b      	ldr	r3, [r7, #0]
 80013d4:	78db      	ldrb	r3, [r3, #3]
 80013d6:	2b48      	cmp	r3, #72	; 0x48
 80013d8:	d106      	bne.n	80013e8 <GPIO_Init+0xec>
 80013da:	69bb      	ldr	r3, [r7, #24]
 80013dc:	f04f 0201 	mov.w	r2, #1
 80013e0:	fa02 f203 	lsl.w	r2, r2, r3
 80013e4:	687b      	ldr	r3, [r7, #4]
 80013e6:	611a      	str	r2, [r3, #16]
 80013e8:	69bb      	ldr	r3, [r7, #24]
 80013ea:	f103 0301 	add.w	r3, r3, #1
 80013ee:	61bb      	str	r3, [r7, #24]
 80013f0:	69bb      	ldr	r3, [r7, #24]
 80013f2:	2b07      	cmp	r3, #7
 80013f4:	d9b7      	bls.n	8001366 <GPIO_Init+0x6a>
 80013f6:	687b      	ldr	r3, [r7, #4]
 80013f8:	697a      	ldr	r2, [r7, #20]
 80013fa:	601a      	str	r2, [r3, #0]
 80013fc:	683b      	ldr	r3, [r7, #0]
 80013fe:	881b      	ldrh	r3, [r3, #0]
 8001400:	2bff      	cmp	r3, #255	; 0xff
 8001402:	d956      	bls.n	80014b2 <GPIO_Init+0x1b6>
 8001404:	687b      	ldr	r3, [r7, #4]
 8001406:	685b      	ldr	r3, [r3, #4]
 8001408:	617b      	str	r3, [r7, #20]
 800140a:	f04f 0300 	mov.w	r3, #0
 800140e:	61bb      	str	r3, [r7, #24]
 8001410:	e049      	b.n	80014a6 <GPIO_Init+0x1aa>
 8001412:	69bb      	ldr	r3, [r7, #24]
 8001414:	f103 0308 	add.w	r3, r3, #8
 8001418:	f04f 0201 	mov.w	r2, #1
 800141c:	fa02 f303 	lsl.w	r3, r2, r3
 8001420:	60fb      	str	r3, [r7, #12]
 8001422:	683b      	ldr	r3, [r7, #0]
 8001424:	881b      	ldrh	r3, [r3, #0]
 8001426:	461a      	mov	r2, r3
 8001428:	68fb      	ldr	r3, [r7, #12]
 800142a:	ea02 0303 	and.w	r3, r2, r3
 800142e:	613b      	str	r3, [r7, #16]
 8001430:	693a      	ldr	r2, [r7, #16]
 8001432:	68fb      	ldr	r3, [r7, #12]
 8001434:	429a      	cmp	r2, r3
 8001436:	d132      	bne.n	800149e <GPIO_Init+0x1a2>
 8001438:	69bb      	ldr	r3, [r7, #24]
 800143a:	ea4f 0383 	mov.w	r3, r3, lsl #2
 800143e:	60fb      	str	r3, [r7, #12]
 8001440:	68fb      	ldr	r3, [r7, #12]
 8001442:	f04f 020f 	mov.w	r2, #15
 8001446:	fa02 f303 	lsl.w	r3, r2, r3
 800144a:	60bb      	str	r3, [r7, #8]
 800144c:	68bb      	ldr	r3, [r7, #8]
 800144e:	ea6f 0303 	mvn.w	r3, r3
 8001452:	697a      	ldr	r2, [r7, #20]
 8001454:	ea02 0303 	and.w	r3, r2, r3
 8001458:	617b      	str	r3, [r7, #20]
 800145a:	68fb      	ldr	r3, [r7, #12]
 800145c:	69fa      	ldr	r2, [r7, #28]
 800145e:	fa02 f303 	lsl.w	r3, r2, r3
 8001462:	697a      	ldr	r2, [r7, #20]
 8001464:	ea42 0303 	orr.w	r3, r2, r3
 8001468:	617b      	str	r3, [r7, #20]
 800146a:	683b      	ldr	r3, [r7, #0]
 800146c:	78db      	ldrb	r3, [r3, #3]
 800146e:	2b28      	cmp	r3, #40	; 0x28
 8001470:	d108      	bne.n	8001484 <GPIO_Init+0x188>
 8001472:	69bb      	ldr	r3, [r7, #24]
 8001474:	f103 0308 	add.w	r3, r3, #8
 8001478:	f04f 0201 	mov.w	r2, #1
 800147c:	fa02 f203 	lsl.w	r2, r2, r3
 8001480:	687b      	ldr	r3, [r7, #4]
 8001482:	615a      	str	r2, [r3, #20]
 8001484:	683b      	ldr	r3, [r7, #0]
 8001486:	78db      	ldrb	r3, [r3, #3]
 8001488:	2b48      	cmp	r3, #72	; 0x48
 800148a:	d108      	bne.n	800149e <GPIO_Init+0x1a2>
 800148c:	69bb      	ldr	r3, [r7, #24]
 800148e:	f103 0308 	add.w	r3, r3, #8
 8001492:	f04f 0201 	mov.w	r2, #1
 8001496:	fa02 f203 	lsl.w	r2, r2, r3
 800149a:	687b      	ldr	r3, [r7, #4]
 800149c:	611a      	str	r2, [r3, #16]
 800149e:	69bb      	ldr	r3, [r7, #24]
 80014a0:	f103 0301 	add.w	r3, r3, #1
 80014a4:	61bb      	str	r3, [r7, #24]
 80014a6:	69bb      	ldr	r3, [r7, #24]
 80014a8:	2b07      	cmp	r3, #7
 80014aa:	d9b2      	bls.n	8001412 <GPIO_Init+0x116>
 80014ac:	687b      	ldr	r3, [r7, #4]
 80014ae:	697a      	ldr	r2, [r7, #20]
 80014b0:	605a      	str	r2, [r3, #4]
 80014b2:	f107 0724 	add.w	r7, r7, #36	; 0x24
 80014b6:	46bd      	mov	sp, r7
 80014b8:	bc80      	pop	{r7}
 80014ba:	4770      	bx	lr

080014bc <GPIO_ReadInputDataBit>:
 80014bc:	b480      	push	{r7}
 80014be:	b085      	sub	sp, #20
 80014c0:	af00      	add	r7, sp, #0
 80014c2:	6078      	str	r0, [r7, #4]
 80014c4:	460b      	mov	r3, r1
 80014c6:	807b      	strh	r3, [r7, #2]
 80014c8:	f04f 0300 	mov.w	r3, #0
 80014cc:	73fb      	strb	r3, [r7, #15]
 80014ce:	687b      	ldr	r3, [r7, #4]
 80014d0:	689b      	ldr	r3, [r3, #8]
 80014d2:	461a      	mov	r2, r3
 80014d4:	887b      	ldrh	r3, [r7, #2]
 80014d6:	ea02 0303 	and.w	r3, r2, r3
 80014da:	2b00      	cmp	r3, #0
 80014dc:	d003      	beq.n	80014e6 <GPIO_ReadInputDataBit+0x2a>
 80014de:	f04f 0301 	mov.w	r3, #1
 80014e2:	73fb      	strb	r3, [r7, #15]
 80014e4:	e002      	b.n	80014ec <GPIO_ReadInputDataBit+0x30>
 80014e6:	f04f 0300 	mov.w	r3, #0
 80014ea:	73fb      	strb	r3, [r7, #15]
 80014ec:	7bfb      	ldrb	r3, [r7, #15]
 80014ee:	4618      	mov	r0, r3
 80014f0:	f107 0714 	add.w	r7, r7, #20
 80014f4:	46bd      	mov	sp, r7
 80014f6:	bc80      	pop	{r7}
 80014f8:	4770      	bx	lr
 80014fa:	bf00      	nop

080014fc <GPIO_PinRemapConfig>:
 80014fc:	b480      	push	{r7}
 80014fe:	b087      	sub	sp, #28
 8001500:	af00      	add	r7, sp, #0
 8001502:	6078      	str	r0, [r7, #4]
 8001504:	460b      	mov	r3, r1
 8001506:	70fb      	strb	r3, [r7, #3]
 8001508:	f04f 0300 	mov.w	r3, #0
 800150c:	613b      	str	r3, [r7, #16]
 800150e:	f04f 0300 	mov.w	r3, #0
 8001512:	60fb      	str	r3, [r7, #12]
 8001514:	f04f 0300 	mov.w	r3, #0
 8001518:	617b      	str	r3, [r7, #20]
 800151a:	f04f 0300 	mov.w	r3, #0
 800151e:	60bb      	str	r3, [r7, #8]
 8001520:	687b      	ldr	r3, [r7, #4]
 8001522:	2b00      	cmp	r3, #0
 8001524:	da06      	bge.n	8001534 <GPIO_PinRemapConfig+0x38>
 8001526:	f04f 0300 	mov.w	r3, #0
 800152a:	f2c4 0301 	movt	r3, #16385	; 0x4001
 800152e:	69db      	ldr	r3, [r3, #28]
 8001530:	617b      	str	r3, [r7, #20]
 8001532:	e005      	b.n	8001540 <GPIO_PinRemapConfig+0x44>
 8001534:	f04f 0300 	mov.w	r3, #0
 8001538:	f2c4 0301 	movt	r3, #16385	; 0x4001
 800153c:	685b      	ldr	r3, [r3, #4]
 800153e:	617b      	str	r3, [r7, #20]
 8001540:	687b      	ldr	r3, [r7, #4]
 8001542:	f403 2370 	and.w	r3, r3, #983040	; 0xf0000
 8001546:	ea4f 4313 	mov.w	r3, r3, lsr #16
 800154a:	60bb      	str	r3, [r7, #8]
 800154c:	687b      	ldr	r3, [r7, #4]
 800154e:	ea4f 4303 	mov.w	r3, r3, lsl #16
 8001552:	ea4f 4313 	mov.w	r3, r3, lsr #16
 8001556:	613b      	str	r3, [r7, #16]
 8001558:	687b      	ldr	r3, [r7, #4]
 800155a:	f403 1340 	and.w	r3, r3, #3145728	; 0x300000
 800155e:	f5b3 1f40 	cmp.w	r3, #3145728	; 0x300000
 8001562:	d110      	bne.n	8001586 <GPIO_PinRemapConfig+0x8a>
 8001564:	697b      	ldr	r3, [r7, #20]
 8001566:	f023 6370 	bic.w	r3, r3, #251658240	; 0xf000000
 800156a:	617b      	str	r3, [r7, #20]
 800156c:	f04f 0300 	mov.w	r3, #0
 8001570:	f2c4 0301 	movt	r3, #16385	; 0x4001
 8001574:	f04f 0200 	mov.w	r2, #0
 8001578:	f2c4 0201 	movt	r2, #16385	; 0x4001
 800157c:	6852      	ldr	r2, [r2, #4]
 800157e:	f022 6270 	bic.w	r2, r2, #251658240	; 0xf000000
 8001582:	605a      	str	r2, [r3, #4]
 8001584:	e028      	b.n	80015d8 <GPIO_PinRemapConfig+0xdc>
 8001586:	687b      	ldr	r3, [r7, #4]
 8001588:	f403 1380 	and.w	r3, r3, #1048576	; 0x100000
 800158c:	2b00      	cmp	r3, #0
 800158e:	d011      	beq.n	80015b4 <GPIO_PinRemapConfig+0xb8>
 8001590:	68bb      	ldr	r3, [r7, #8]
 8001592:	f04f 0203 	mov.w	r2, #3
 8001596:	fa02 f303 	lsl.w	r3, r2, r3
 800159a:	60fb      	str	r3, [r7, #12]
 800159c:	68fb      	ldr	r3, [r7, #12]
 800159e:	ea6f 0303 	mvn.w	r3, r3
 80015a2:	697a      	ldr	r2, [r7, #20]
 80015a4:	ea02 0303 	and.w	r3, r2, r3
 80015a8:	617b      	str	r3, [r7, #20]
 80015aa:	697b      	ldr	r3, [r7, #20]
 80015ac:	f043 6370 	orr.w	r3, r3, #251658240	; 0xf000000
 80015b0:	617b      	str	r3, [r7, #20]
 80015b2:	e011      	b.n	80015d8 <GPIO_PinRemapConfig+0xdc>
 80015b4:	687b      	ldr	r3, [r7, #4]
 80015b6:	ea4f 5353 	mov.w	r3, r3, lsr #21
 80015ba:	ea4f 1303 	mov.w	r3, r3, lsl #4
 80015be:	693a      	ldr	r2, [r7, #16]
 80015c0:	fa02 f303 	lsl.w	r3, r2, r3
 80015c4:	ea6f 0303 	mvn.w	r3, r3
 80015c8:	697a      	ldr	r2, [r7, #20]
 80015ca:	ea02 0303 	and.w	r3, r2, r3
 80015ce:	617b      	str	r3, [r7, #20]
 80015d0:	697b      	ldr	r3, [r7, #20]
 80015d2:	f043 6370 	orr.w	r3, r3, #251658240	; 0xf000000
 80015d6:	617b      	str	r3, [r7, #20]
 80015d8:	78fb      	ldrb	r3, [r7, #3]
 80015da:	2b00      	cmp	r3, #0
 80015dc:	d00b      	beq.n	80015f6 <GPIO_PinRemapConfig+0xfa>
 80015de:	687b      	ldr	r3, [r7, #4]
 80015e0:	ea4f 5353 	mov.w	r3, r3, lsr #21
 80015e4:	ea4f 1303 	mov.w	r3, r3, lsl #4
 80015e8:	693a      	ldr	r2, [r7, #16]
 80015ea:	fa02 f303 	lsl.w	r3, r2, r3
 80015ee:	697a      	ldr	r2, [r7, #20]
 80015f0:	ea42 0303 	orr.w	r3, r2, r3
 80015f4:	617b      	str	r3, [r7, #20]
 80015f6:	687b      	ldr	r3, [r7, #4]
 80015f8:	2b00      	cmp	r3, #0
 80015fa:	da06      	bge.n	800160a <GPIO_PinRemapConfig+0x10e>
 80015fc:	f04f 0300 	mov.w	r3, #0
 8001600:	f2c4 0301 	movt	r3, #16385	; 0x4001
 8001604:	697a      	ldr	r2, [r7, #20]
 8001606:	61da      	str	r2, [r3, #28]
 8001608:	e005      	b.n	8001616 <GPIO_PinRemapConfig+0x11a>
 800160a:	f04f 0300 	mov.w	r3, #0
 800160e:	f2c4 0301 	movt	r3, #16385	; 0x4001
 8001612:	697a      	ldr	r2, [r7, #20]
 8001614:	605a      	str	r2, [r3, #4]
 8001616:	f107 071c 	add.w	r7, r7, #28
 800161a:	46bd      	mov	sp, r7
 800161c:	bc80      	pop	{r7}
 800161e:	4770      	bx	lr

08001620 <GPIO_EXTILineConfig>:
 8001620:	b490      	push	{r4, r7}
 8001622:	b084      	sub	sp, #16
 8001624:	af00      	add	r7, sp, #0
 8001626:	4602      	mov	r2, r0
 8001628:	460b      	mov	r3, r1
 800162a:	71fa      	strb	r2, [r7, #7]
 800162c:	71bb      	strb	r3, [r7, #6]
 800162e:	f04f 0300 	mov.w	r3, #0
 8001632:	60fb      	str	r3, [r7, #12]
 8001634:	79bb      	ldrb	r3, [r7, #6]
 8001636:	f003 0303 	and.w	r3, r3, #3
 800163a:	ea4f 0383 	mov.w	r3, r3, lsl #2
 800163e:	f04f 020f 	mov.w	r2, #15
 8001642:	fa02 f303 	lsl.w	r3, r2, r3
 8001646:	60fb      	str	r3, [r7, #12]
 8001648:	f04f 0300 	mov.w	r3, #0
 800164c:	f2c4 0301 	movt	r3, #16385	; 0x4001
 8001650:	79ba      	ldrb	r2, [r7, #6]
 8001652:	ea4f 0292 	mov.w	r2, r2, lsr #2
 8001656:	b2d2      	uxtb	r2, r2
 8001658:	4610      	mov	r0, r2
 800165a:	f04f 0200 	mov.w	r2, #0
 800165e:	f2c4 0201 	movt	r2, #16385	; 0x4001
 8001662:	79b9      	ldrb	r1, [r7, #6]
 8001664:	ea4f 0191 	mov.w	r1, r1, lsr #2
 8001668:	b2c9      	uxtb	r1, r1
 800166a:	f101 0102 	add.w	r1, r1, #2
 800166e:	f852 2021 	ldr.w	r2, [r2, r1, lsl #2]
 8001672:	4611      	mov	r1, r2
 8001674:	68fa      	ldr	r2, [r7, #12]
 8001676:	ea6f 0202 	mvn.w	r2, r2
 800167a:	4011      	ands	r1, r2
 800167c:	f100 0202 	add.w	r2, r0, #2
 8001680:	f843 1022 	str.w	r1, [r3, r2, lsl #2]
 8001684:	f04f 0300 	mov.w	r3, #0
 8001688:	f2c4 0301 	movt	r3, #16385	; 0x4001
 800168c:	79ba      	ldrb	r2, [r7, #6]
 800168e:	ea4f 0292 	mov.w	r2, r2, lsr #2
 8001692:	b2d2      	uxtb	r2, r2
 8001694:	4610      	mov	r0, r2
 8001696:	f04f 0200 	mov.w	r2, #0
 800169a:	f2c4 0201 	movt	r2, #16385	; 0x4001
 800169e:	79b9      	ldrb	r1, [r7, #6]
 80016a0:	ea4f 0191 	mov.w	r1, r1, lsr #2
 80016a4:	b2c9      	uxtb	r1, r1
 80016a6:	f101 0102 	add.w	r1, r1, #2
 80016aa:	f852 2021 	ldr.w	r2, [r2, r1, lsl #2]
 80016ae:	4611      	mov	r1, r2
 80016b0:	79fc      	ldrb	r4, [r7, #7]
 80016b2:	79ba      	ldrb	r2, [r7, #6]
 80016b4:	f002 0203 	and.w	r2, r2, #3
 80016b8:	ea4f 0282 	mov.w	r2, r2, lsl #2
 80016bc:	fa04 f202 	lsl.w	r2, r4, r2
 80016c0:	4311      	orrs	r1, r2
 80016c2:	f100 0202 	add.w	r2, r0, #2
 80016c6:	f843 1022 	str.w	r1, [r3, r2, lsl #2]
 80016ca:	f107 0710 	add.w	r7, r7, #16
 80016ce:	46bd      	mov	sp, r7
 80016d0:	bc90      	pop	{r4, r7}
 80016d2:	4770      	bx	lr

080016d4 <prvSetupHardware>:
 80016d4:	b580      	push	{r7, lr}
 80016d6:	b082      	sub	sp, #8
 80016d8:	af00      	add	r7, sp, #0
 80016da:	f04f 001c 	mov.w	r0, #28
 80016de:	f04f 0101 	mov.w	r1, #1
 80016e2:	f000 f84d 	bl	8001780 <RCC_APB2PeriphClockCmd>
 80016e6:	f04f 0310 	mov.w	r3, #16
 80016ea:	80bb      	strh	r3, [r7, #4]
 80016ec:	f04f 0310 	mov.w	r3, #16
 80016f0:	71fb      	strb	r3, [r7, #7]
 80016f2:	f04f 0303 	mov.w	r3, #3
 80016f6:	71bb      	strb	r3, [r7, #6]
 80016f8:	f107 0304 	add.w	r3, r7, #4
 80016fc:	f44f 6040 	mov.w	r0, #3072	; 0xc00
 8001700:	f2c4 0001 	movt	r0, #16385	; 0x4001
 8001704:	4619      	mov	r1, r3
 8001706:	f7ff fdf9 	bl	80012fc <GPIO_Init>
 800170a:	f44f 6300 	mov.w	r3, #2048	; 0x800
 800170e:	80bb      	strh	r3, [r7, #4]
 8001710:	f04f 0348 	mov.w	r3, #72	; 0x48
 8001714:	71fb      	strb	r3, [r7, #7]
 8001716:	f04f 0303 	mov.w	r3, #3
 800171a:	71bb      	strb	r3, [r7, #6]
 800171c:	f107 0304 	add.w	r3, r7, #4
 8001720:	f44f 6000 	mov.w	r0, #2048	; 0x800
 8001724:	f2c4 0001 	movt	r0, #16385	; 0x4001
 8001728:	4619      	mov	r1, r3
 800172a:	f7ff fde7 	bl	80012fc <GPIO_Init>
 800172e:	f44f 5380 	mov.w	r3, #4096	; 0x1000
 8001732:	80bb      	strh	r3, [r7, #4]
 8001734:	f04f 0348 	mov.w	r3, #72	; 0x48
 8001738:	71fb      	strb	r3, [r7, #7]
 800173a:	f04f 0303 	mov.w	r3, #3
 800173e:	71bb      	strb	r3, [r7, #6]
 8001740:	f107 0304 	add.w	r3, r7, #4
 8001744:	f44f 6000 	mov.w	r0, #2048	; 0x800
 8001748:	f2c4 0001 	movt	r0, #16385	; 0x4001
 800174c:	4619      	mov	r1, r3
 800174e:	f7ff fdd5 	bl	80012fc <GPIO_Init>
 8001752:	f107 0708 	add.w	r7, r7, #8
 8001756:	46bd      	mov	sp, r7
 8001758:	bd80      	pop	{r7, pc}
 800175a:	bf00      	nop

0800175c <main>:
 800175c:	b580      	push	{r7, lr}
 800175e:	af00      	add	r7, sp, #0
 8001760:	f7ff fbbe 	bl	8000ee0 <SystemInit>
 8001764:	f7ff ffb6 	bl	80016d4 <prvSetupHardware>
 8001768:	f001 f9b6 	bl	8002ad8 <DOL_Init>
 800176c:	f7ff fcca 	bl	8001104 <PWM_Init>
 8001770:	f001 fb9c 	bl	8002eac <init_timer_6>
 8001774:	f001 fcfc 	bl	8003170 <Ext_Int_Init>
 8001778:	f000 fa20 	bl	8001bbc <vTaskStartScheduler>
 800177c:	e7fe      	b.n	800177c <main+0x20>
 800177e:	bf00      	nop

08001780 <RCC_APB2PeriphClockCmd>:
 8001780:	b480      	push	{r7}
 8001782:	b083      	sub	sp, #12
 8001784:	af00      	add	r7, sp, #0
 8001786:	6078      	str	r0, [r7, #4]
 8001788:	460b      	mov	r3, r1
 800178a:	70fb      	strb	r3, [r7, #3]
 800178c:	78fb      	ldrb	r3, [r7, #3]
 800178e:	2b00      	cmp	r3, #0
 8001790:	d00e      	beq.n	80017b0 <RCC_APB2PeriphClockCmd+0x30>
 8001792:	f44f 5380 	mov.w	r3, #4096	; 0x1000
 8001796:	f2c4 0302 	movt	r3, #16386	; 0x4002
 800179a:	f44f 5280 	mov.w	r2, #4096	; 0x1000
 800179e:	f2c4 0202 	movt	r2, #16386	; 0x4002
 80017a2:	6992      	ldr	r2, [r2, #24]
 80017a4:	4611      	mov	r1, r2
 80017a6:	687a      	ldr	r2, [r7, #4]
 80017a8:	ea41 0202 	orr.w	r2, r1, r2
 80017ac:	619a      	str	r2, [r3, #24]
 80017ae:	e00f      	b.n	80017d0 <RCC_APB2PeriphClockCmd+0x50>
 80017b0:	f44f 5380 	mov.w	r3, #4096	; 0x1000
 80017b4:	f2c4 0302 	movt	r3, #16386	; 0x4002
 80017b8:	f44f 5280 	mov.w	r2, #4096	; 0x1000
 80017bc:	f2c4 0202 	movt	r2, #16386	; 0x4002
 80017c0:	6992      	ldr	r2, [r2, #24]
 80017c2:	4611      	mov	r1, r2
 80017c4:	687a      	ldr	r2, [r7, #4]
 80017c6:	ea6f 0202 	mvn.w	r2, r2
 80017ca:	ea01 0202 	and.w	r2, r1, r2
 80017ce:	619a      	str	r2, [r3, #24]
 80017d0:	f107 070c 	add.w	r7, r7, #12
 80017d4:	46bd      	mov	sp, r7
 80017d6:	bc80      	pop	{r7}
 80017d8:	4770      	bx	lr
 80017da:	bf00      	nop

080017dc <RCC_APB1PeriphClockCmd>:
 80017dc:	b480      	push	{r7}
 80017de:	b083      	sub	sp, #12
 80017e0:	af00      	add	r7, sp, #0
 80017e2:	6078      	str	r0, [r7, #4]
 80017e4:	460b      	mov	r3, r1
 80017e6:	70fb      	strb	r3, [r7, #3]
 80017e8:	78fb      	ldrb	r3, [r7, #3]
 80017ea:	2b00      	cmp	r3, #0
 80017ec:	d00e      	beq.n	800180c <RCC_APB1PeriphClockCmd+0x30>
 80017ee:	f44f 5380 	mov.w	r3, #4096	; 0x1000
 80017f2:	f2c4 0302 	movt	r3, #16386	; 0x4002
 80017f6:	f44f 5280 	mov.w	r2, #4096	; 0x1000
 80017fa:	f2c4 0202 	movt	r2, #16386	; 0x4002
 80017fe:	69d2      	ldr	r2, [r2, #28]
 8001800:	4611      	mov	r1, r2
 8001802:	687a      	ldr	r2, [r7, #4]
 8001804:	ea41 0202 	orr.w	r2, r1, r2
 8001808:	61da      	str	r2, [r3, #28]
 800180a:	e00f      	b.n	800182c <RCC_APB1PeriphClockCmd+0x50>
 800180c:	f44f 5380 	mov.w	r3, #4096	; 0x1000
 8001810:	f2c4 0302 	movt	r3, #16386	; 0x4002
 8001814:	f44f 5280 	mov.w	r2, #4096	; 0x1000
 8001818:	f2c4 0202 	movt	r2, #16386	; 0x4002
 800181c:	69d2      	ldr	r2, [r2, #28]
 800181e:	4611      	mov	r1, r2
 8001820:	687a      	ldr	r2, [r7, #4]
 8001822:	ea6f 0202 	mvn.w	r2, r2
 8001826:	ea01 0202 	and.w	r2, r1, r2
 800182a:	61da      	str	r2, [r3, #28]
 800182c:	f107 070c 	add.w	r7, r7, #12
 8001830:	46bd      	mov	sp, r7
 8001832:	bc80      	pop	{r7}
 8001834:	4770      	bx	lr
 8001836:	bf00      	nop

08001838 <EXTI_Init>:
 8001838:	b480      	push	{r7}
 800183a:	b085      	sub	sp, #20
 800183c:	af00      	add	r7, sp, #0
 800183e:	6078      	str	r0, [r7, #4]
 8001840:	f04f 0300 	mov.w	r3, #0
 8001844:	60fb      	str	r3, [r7, #12]
 8001846:	f44f 6380 	mov.w	r3, #1024	; 0x400
 800184a:	f2c4 0301 	movt	r3, #16385	; 0x4001
 800184e:	60fb      	str	r3, [r7, #12]
 8001850:	687b      	ldr	r3, [r7, #4]
 8001852:	799b      	ldrb	r3, [r3, #6]
 8001854:	2b00      	cmp	r3, #0
 8001856:	f000 8087 	beq.w	8001968 <EXTI_Init+0x130>
 800185a:	f44f 6380 	mov.w	r3, #1024	; 0x400
 800185e:	f2c4 0301 	movt	r3, #16385	; 0x4001
 8001862:	f44f 6280 	mov.w	r2, #1024	; 0x400
 8001866:	f2c4 0201 	movt	r2, #16385	; 0x4001
 800186a:	6812      	ldr	r2, [r2, #0]
 800186c:	4611      	mov	r1, r2
 800186e:	687a      	ldr	r2, [r7, #4]
 8001870:	6812      	ldr	r2, [r2, #0]
 8001872:	ea6f 0202 	mvn.w	r2, r2
 8001876:	ea01 0202 	and.w	r2, r1, r2
 800187a:	601a      	str	r2, [r3, #0]
 800187c:	f44f 6380 	mov.w	r3, #1024	; 0x400
 8001880:	f2c4 0301 	movt	r3, #16385	; 0x4001
 8001884:	f44f 6280 	mov.w	r2, #1024	; 0x400
 8001888:	f2c4 0201 	movt	r2, #16385	; 0x4001
 800188c:	6852      	ldr	r2, [r2, #4]
 800188e:	4611      	mov	r1, r2
 8001890:	687a      	ldr	r2, [r7, #4]
 8001892:	6812      	ldr	r2, [r2, #0]
 8001894:	ea6f 0202 	mvn.w	r2, r2
 8001898:	ea01 0202 	and.w	r2, r1, r2
 800189c:	605a      	str	r2, [r3, #4]
 800189e:	687b      	ldr	r3, [r7, #4]
 80018a0:	791b      	ldrb	r3, [r3, #4]
 80018a2:	68fa      	ldr	r2, [r7, #12]
 80018a4:	18d3      	adds	r3, r2, r3
 80018a6:	60fb      	str	r3, [r7, #12]
 80018a8:	68fb      	ldr	r3, [r7, #12]
 80018aa:	68fa      	ldr	r2, [r7, #12]
 80018ac:	6811      	ldr	r1, [r2, #0]
 80018ae:	687a      	ldr	r2, [r7, #4]
 80018b0:	6812      	ldr	r2, [r2, #0]
 80018b2:	ea41 0202 	orr.w	r2, r1, r2
 80018b6:	601a      	str	r2, [r3, #0]
 80018b8:	f44f 6380 	mov.w	r3, #1024	; 0x400
 80018bc:	f2c4 0301 	movt	r3, #16385	; 0x4001
 80018c0:	f44f 6280 	mov.w	r2, #1024	; 0x400
 80018c4:	f2c4 0201 	movt	r2, #16385	; 0x4001
 80018c8:	6892      	ldr	r2, [r2, #8]
 80018ca:	4611      	mov	r1, r2
 80018cc:	687a      	ldr	r2, [r7, #4]
 80018ce:	6812      	ldr	r2, [r2, #0]
 80018d0:	ea6f 0202 	mvn.w	r2, r2
 80018d4:	ea01 0202 	and.w	r2, r1, r2
 80018d8:	609a      	str	r2, [r3, #8]
 80018da:	f44f 6380 	mov.w	r3, #1024	; 0x400
 80018de:	f2c4 0301 	movt	r3, #16385	; 0x4001
 80018e2:	f44f 6280 	mov.w	r2, #1024	; 0x400
 80018e6:	f2c4 0201 	movt	r2, #16385	; 0x4001
 80018ea:	68d2      	ldr	r2, [r2, #12]
 80018ec:	4611      	mov	r1, r2
 80018ee:	687a      	ldr	r2, [r7, #4]
 80018f0:	6812      	ldr	r2, [r2, #0]
 80018f2:	ea6f 0202 	mvn.w	r2, r2
 80018f6:	ea01 0202 	and.w	r2, r1, r2
 80018fa:	60da      	str	r2, [r3, #12]
 80018fc:	687b      	ldr	r3, [r7, #4]
 80018fe:	795b      	ldrb	r3, [r3, #5]
 8001900:	2b10      	cmp	r3, #16
 8001902:	d11e      	bne.n	8001942 <EXTI_Init+0x10a>
 8001904:	f44f 6380 	mov.w	r3, #1024	; 0x400
 8001908:	f2c4 0301 	movt	r3, #16385	; 0x4001
 800190c:	f44f 6280 	mov.w	r2, #1024	; 0x400
 8001910:	f2c4 0201 	movt	r2, #16385	; 0x4001
 8001914:	6892      	ldr	r2, [r2, #8]
 8001916:	4611      	mov	r1, r2
 8001918:	687a      	ldr	r2, [r7, #4]
 800191a:	6812      	ldr	r2, [r2, #0]
 800191c:	ea41 0202 	orr.w	r2, r1, r2
 8001920:	609a      	str	r2, [r3, #8]
 8001922:	f44f 6380 	mov.w	r3, #1024	; 0x400
 8001926:	f2c4 0301 	movt	r3, #16385	; 0x4001
 800192a:	f44f 6280 	mov.w	r2, #1024	; 0x400
 800192e:	f2c4 0201 	movt	r2, #16385	; 0x4001
 8001932:	68d2      	ldr	r2, [r2, #12]
 8001934:	4611      	mov	r1, r2
 8001936:	687a      	ldr	r2, [r7, #4]
 8001938:	6812      	ldr	r2, [r2, #0]
 800193a:	ea41 0202 	orr.w	r2, r1, r2
 800193e:	60da      	str	r2, [r3, #12]
 8001940:	e021      	b.n	8001986 <EXTI_Init+0x14e>
 8001942:	f44f 6380 	mov.w	r3, #1024	; 0x400
 8001946:	f2c4 0301 	movt	r3, #16385	; 0x4001
 800194a:	60fb      	str	r3, [r7, #12]
 800194c:	687b      	ldr	r3, [r7, #4]
 800194e:	795b      	ldrb	r3, [r3, #5]
 8001950:	68fa      	ldr	r2, [r7, #12]
 8001952:	18d3      	adds	r3, r2, r3
 8001954:	60fb      	str	r3, [r7, #12]
 8001956:	68fb      	ldr	r3, [r7, #12]
 8001958:	68fa      	ldr	r2, [r7, #12]
 800195a:	6811      	ldr	r1, [r2, #0]
 800195c:	687a      	ldr	r2, [r7, #4]
 800195e:	6812      	ldr	r2, [r2, #0]
 8001960:	ea41 0202 	orr.w	r2, r1, r2
 8001964:	601a      	str	r2, [r3, #0]
 8001966:	e00e      	b.n	8001986 <EXTI_Init+0x14e>
 8001968:	687b      	ldr	r3, [r7, #4]
 800196a:	791b      	ldrb	r3, [r3, #4]
 800196c:	68fa      	ldr	r2, [r7, #12]
 800196e:	18d3      	adds	r3, r2, r3
 8001970:	60fb      	str	r3, [r7, #12]
 8001972:	68fb      	ldr	r3, [r7, #12]
 8001974:	68fa      	ldr	r2, [r7, #12]
 8001976:	6811      	ldr	r1, [r2, #0]
 8001978:	687a      	ldr	r2, [r7, #4]
 800197a:	6812      	ldr	r2, [r2, #0]
 800197c:	ea6f 0202 	mvn.w	r2, r2
 8001980:	ea01 0202 	and.w	r2, r1, r2
 8001984:	601a      	str	r2, [r3, #0]
 8001986:	f107 0714 	add.w	r7, r7, #20
 800198a:	46bd      	mov	sp, r7
 800198c:	bc80      	pop	{r7}
 800198e:	4770      	bx	lr

08001990 <EXTI_GetITStatus>:
 8001990:	b480      	push	{r7}
 8001992:	b085      	sub	sp, #20
 8001994:	af00      	add	r7, sp, #0
 8001996:	6078      	str	r0, [r7, #4]
 8001998:	f04f 0300 	mov.w	r3, #0
 800199c:	73fb      	strb	r3, [r7, #15]
 800199e:	f04f 0300 	mov.w	r3, #0
 80019a2:	60bb      	str	r3, [r7, #8]
 80019a4:	f44f 6380 	mov.w	r3, #1024	; 0x400
 80019a8:	f2c4 0301 	movt	r3, #16385	; 0x4001
 80019ac:	681b      	ldr	r3, [r3, #0]
 80019ae:	461a      	mov	r2, r3
 80019b0:	687b      	ldr	r3, [r7, #4]
 80019b2:	ea02 0303 	and.w	r3, r2, r3
 80019b6:	60bb      	str	r3, [r7, #8]
 80019b8:	f44f 6380 	mov.w	r3, #1024	; 0x400
 80019bc:	f2c4 0301 	movt	r3, #16385	; 0x4001
 80019c0:	695b      	ldr	r3, [r3, #20]
 80019c2:	461a      	mov	r2, r3
 80019c4:	687b      	ldr	r3, [r7, #4]
 80019c6:	ea02 0303 	and.w	r3, r2, r3
 80019ca:	2b00      	cmp	r3, #0
 80019cc:	d006      	beq.n	80019dc <EXTI_GetITStatus+0x4c>
 80019ce:	68bb      	ldr	r3, [r7, #8]
 80019d0:	2b00      	cmp	r3, #0
 80019d2:	d003      	beq.n	80019dc <EXTI_GetITStatus+0x4c>
 80019d4:	f04f 0301 	mov.w	r3, #1
 80019d8:	73fb      	strb	r3, [r7, #15]
 80019da:	e002      	b.n	80019e2 <EXTI_GetITStatus+0x52>
 80019dc:	f04f 0300 	mov.w	r3, #0
 80019e0:	73fb      	strb	r3, [r7, #15]
 80019e2:	7bfb      	ldrb	r3, [r7, #15]
 80019e4:	4618      	mov	r0, r3
 80019e6:	f107 0714 	add.w	r7, r7, #20
 80019ea:	46bd      	mov	sp, r7
 80019ec:	bc80      	pop	{r7}
 80019ee:	4770      	bx	lr

080019f0 <EXTI_ClearITPendingBit>:
 80019f0:	b480      	push	{r7}
 80019f2:	b083      	sub	sp, #12
 80019f4:	af00      	add	r7, sp, #0
 80019f6:	6078      	str	r0, [r7, #4]
 80019f8:	f44f 6380 	mov.w	r3, #1024	; 0x400
 80019fc:	f2c4 0301 	movt	r3, #16385	; 0x4001
 8001a00:	687a      	ldr	r2, [r7, #4]
 8001a02:	615a      	str	r2, [r3, #20]
 8001a04:	f107 070c 	add.w	r7, r7, #12
 8001a08:	46bd      	mov	sp, r7
 8001a0a:	bc80      	pop	{r7}
 8001a0c:	4770      	bx	lr
 8001a0e:	bf00      	nop

08001a10 <xTaskGenericCreate>:
 8001a10:	b580      	push	{r7, lr}
 8001a12:	b08a      	sub	sp, #40	; 0x28
 8001a14:	af02      	add	r7, sp, #8
 8001a16:	60f8      	str	r0, [r7, #12]
 8001a18:	60b9      	str	r1, [r7, #8]
 8001a1a:	603b      	str	r3, [r7, #0]
 8001a1c:	4613      	mov	r3, r2
 8001a1e:	80fb      	strh	r3, [r7, #6]
 8001a20:	88fb      	ldrh	r3, [r7, #6]
 8001a22:	4618      	mov	r0, r3
 8001a24:	6b39      	ldr	r1, [r7, #48]	; 0x30
 8001a26:	f000 fc53 	bl	80022d0 <prvAllocateTCBAndStack>
 8001a2a:	61b8      	str	r0, [r7, #24]
 8001a2c:	69bb      	ldr	r3, [r7, #24]
 8001a2e:	2b00      	cmp	r3, #0
 8001a30:	f000 80a6 	beq.w	8001b80 <xTaskGenericCreate+0x170>
 8001a34:	69bb      	ldr	r3, [r7, #24]
 8001a36:	6b1a      	ldr	r2, [r3, #48]	; 0x30
 8001a38:	88fb      	ldrh	r3, [r7, #6]
 8001a3a:	f103 33ff 	add.w	r3, r3, #4294967295
 8001a3e:	ea4f 0383 	mov.w	r3, r3, lsl #2
 8001a42:	18d3      	adds	r3, r2, r3
 8001a44:	617b      	str	r3, [r7, #20]
 8001a46:	697b      	ldr	r3, [r7, #20]
 8001a48:	f023 0307 	bic.w	r3, r3, #7
 8001a4c:	617b      	str	r3, [r7, #20]
 8001a4e:	88fb      	ldrh	r3, [r7, #6]
 8001a50:	9300      	str	r3, [sp, #0]
 8001a52:	69b8      	ldr	r0, [r7, #24]
 8001a54:	68b9      	ldr	r1, [r7, #8]
 8001a56:	6aba      	ldr	r2, [r7, #40]	; 0x28
 8001a58:	6b7b      	ldr	r3, [r7, #52]	; 0x34
 8001a5a:	f000 fb5d 	bl	8002118 <prvInitialiseTCBVariables>
 8001a5e:	6978      	ldr	r0, [r7, #20]
 8001a60:	68f9      	ldr	r1, [r7, #12]
 8001a62:	683a      	ldr	r2, [r7, #0]
 8001a64:	f000 fef8 	bl	8002858 <pxPortInitialiseStack>
 8001a68:	4603      	mov	r3, r0
 8001a6a:	461a      	mov	r2, r3
 8001a6c:	69bb      	ldr	r3, [r7, #24]
 8001a6e:	601a      	str	r2, [r3, #0]
 8001a70:	6afb      	ldr	r3, [r7, #44]	; 0x2c
 8001a72:	2b00      	cmp	r3, #0
 8001a74:	d002      	beq.n	8001a7c <xTaskGenericCreate+0x6c>
 8001a76:	6afb      	ldr	r3, [r7, #44]	; 0x2c
 8001a78:	69ba      	ldr	r2, [r7, #24]
 8001a7a:	601a      	str	r2, [r3, #0]
 8001a7c:	f000 ff6c 	bl	8002958 <vPortEnterCritical>
 8001a80:	f240 234c 	movw	r3, #588	; 0x24c
 8001a84:	f2c2 0300 	movt	r3, #8192	; 0x2000
 8001a88:	681b      	ldr	r3, [r3, #0]
 8001a8a:	f103 0201 	add.w	r2, r3, #1
 8001a8e:	f240 234c 	movw	r3, #588	; 0x24c
 8001a92:	f2c2 0300 	movt	r3, #8192	; 0x2000
 8001a96:	601a      	str	r2, [r3, #0]
 8001a98:	f240 1374 	movw	r3, #372	; 0x174
 8001a9c:	f2c2 0300 	movt	r3, #8192	; 0x2000
 8001aa0:	681b      	ldr	r3, [r3, #0]
 8001aa2:	2b00      	cmp	r3, #0
 8001aa4:	d10f      	bne.n	8001ac6 <xTaskGenericCreate+0xb6>
 8001aa6:	f240 1374 	movw	r3, #372	; 0x174
 8001aaa:	f2c2 0300 	movt	r3, #8192	; 0x2000
 8001aae:	69ba      	ldr	r2, [r7, #24]
 8001ab0:	601a      	str	r2, [r3, #0]
 8001ab2:	f240 234c 	movw	r3, #588	; 0x24c
 8001ab6:	f2c2 0300 	movt	r3, #8192	; 0x2000
 8001aba:	681b      	ldr	r3, [r3, #0]
 8001abc:	2b01      	cmp	r3, #1
 8001abe:	d118      	bne.n	8001af2 <xTaskGenericCreate+0xe2>
 8001ac0:	f000 fb68 	bl	8002194 <prvInitialiseTaskLists>
 8001ac4:	e015      	b.n	8001af2 <xTaskGenericCreate+0xe2>
 8001ac6:	f240 235c 	movw	r3, #604	; 0x25c
 8001aca:	f2c2 0300 	movt	r3, #8192	; 0x2000
 8001ace:	681b      	ldr	r3, [r3, #0]
 8001ad0:	2b00      	cmp	r3, #0
 8001ad2:	d10e      	bne.n	8001af2 <xTaskGenericCreate+0xe2>
 8001ad4:	f240 1374 	movw	r3, #372	; 0x174
 8001ad8:	f2c2 0300 	movt	r3, #8192	; 0x2000
 8001adc:	681b      	ldr	r3, [r3, #0]
 8001ade:	6ada      	ldr	r2, [r3, #44]	; 0x2c
 8001ae0:	6abb      	ldr	r3, [r7, #40]	; 0x28
 8001ae2:	429a      	cmp	r2, r3
 8001ae4:	d805      	bhi.n	8001af2 <xTaskGenericCreate+0xe2>
 8001ae6:	f240 1374 	movw	r3, #372	; 0x174
 8001aea:	f2c2 0300 	movt	r3, #8192	; 0x2000
 8001aee:	69ba      	ldr	r2, [r7, #24]
 8001af0:	601a      	str	r2, [r3, #0]
 8001af2:	69bb      	ldr	r3, [r7, #24]
 8001af4:	6ada      	ldr	r2, [r3, #44]	; 0x2c
 8001af6:	f240 2354 	movw	r3, #596	; 0x254
 8001afa:	f2c2 0300 	movt	r3, #8192	; 0x2000
 8001afe:	681b      	ldr	r3, [r3, #0]
 8001b00:	429a      	cmp	r2, r3
 8001b02:	d906      	bls.n	8001b12 <xTaskGenericCreate+0x102>
 8001b04:	69bb      	ldr	r3, [r7, #24]
 8001b06:	6ada      	ldr	r2, [r3, #44]	; 0x2c
 8001b08:	f240 2354 	movw	r3, #596	; 0x254
 8001b0c:	f2c2 0300 	movt	r3, #8192	; 0x2000
 8001b10:	601a      	str	r2, [r3, #0]
 8001b12:	f240 2370 	movw	r3, #624	; 0x270
 8001b16:	f2c2 0300 	movt	r3, #8192	; 0x2000
 8001b1a:	681b      	ldr	r3, [r3, #0]
 8001b1c:	f103 0201 	add.w	r2, r3, #1
 8001b20:	f240 2370 	movw	r3, #624	; 0x270
 8001b24:	f2c2 0300 	movt	r3, #8192	; 0x2000
 8001b28:	601a      	str	r2, [r3, #0]
 8001b2a:	69bb      	ldr	r3, [r7, #24]
 8001b2c:	6ada      	ldr	r2, [r3, #44]	; 0x2c
 8001b2e:	f240 2358 	movw	r3, #600	; 0x258
 8001b32:	f2c2 0300 	movt	r3, #8192	; 0x2000
 8001b36:	681b      	ldr	r3, [r3, #0]
 8001b38:	429a      	cmp	r2, r3
 8001b3a:	d906      	bls.n	8001b4a <xTaskGenericCreate+0x13a>
 8001b3c:	69bb      	ldr	r3, [r7, #24]
 8001b3e:	6ada      	ldr	r2, [r3, #44]	; 0x2c
 8001b40:	f240 2358 	movw	r3, #600	; 0x258
 8001b44:	f2c2 0300 	movt	r3, #8192	; 0x2000
 8001b48:	601a      	str	r2, [r3, #0]
 8001b4a:	69bb      	ldr	r3, [r7, #24]
 8001b4c:	6ada      	ldr	r2, [r3, #44]	; 0x2c
 8001b4e:	4613      	mov	r3, r2
 8001b50:	ea4f 0383 	mov.w	r3, r3, lsl #2
 8001b54:	189b      	adds	r3, r3, r2
 8001b56:	ea4f 0383 	mov.w	r3, r3, lsl #2
 8001b5a:	461a      	mov	r2, r3
 8001b5c:	f240 1378 	movw	r3, #376	; 0x178
 8001b60:	f2c2 0300 	movt	r3, #8192	; 0x2000
 8001b64:	18d2      	adds	r2, r2, r3
 8001b66:	69bb      	ldr	r3, [r7, #24]
 8001b68:	f103 0304 	add.w	r3, r3, #4
 8001b6c:	4610      	mov	r0, r2
 8001b6e:	4619      	mov	r1, r3
 8001b70:	f000 fd74 	bl	800265c <vListInsertEnd>
 8001b74:	f04f 0301 	mov.w	r3, #1
 8001b78:	61fb      	str	r3, [r7, #28]
 8001b7a:	f000 ff03 	bl	8002984 <vPortExitCritical>
 8001b7e:	e002      	b.n	8001b86 <xTaskGenericCreate+0x176>
 8001b80:	f04f 33ff 	mov.w	r3, #4294967295
 8001b84:	61fb      	str	r3, [r7, #28]
 8001b86:	69fb      	ldr	r3, [r7, #28]
 8001b88:	2b01      	cmp	r3, #1
 8001b8a:	d111      	bne.n	8001bb0 <xTaskGenericCreate+0x1a0>
 8001b8c:	f240 235c 	movw	r3, #604	; 0x25c
 8001b90:	f2c2 0300 	movt	r3, #8192	; 0x2000
 8001b94:	681b      	ldr	r3, [r3, #0]
 8001b96:	2b00      	cmp	r3, #0
 8001b98:	d00a      	beq.n	8001bb0 <xTaskGenericCreate+0x1a0>
 8001b9a:	f240 1374 	movw	r3, #372	; 0x174
 8001b9e:	f2c2 0300 	movt	r3, #8192	; 0x2000
 8001ba2:	681b      	ldr	r3, [r3, #0]
 8001ba4:	6ada      	ldr	r2, [r3, #44]	; 0x2c
 8001ba6:	6abb      	ldr	r3, [r7, #40]	; 0x28
 8001ba8:	429a      	cmp	r2, r3
 8001baa:	d201      	bcs.n	8001bb0 <xTaskGenericCreate+0x1a0>
 8001bac:	f000 fec8 	bl	8002940 <vPortYieldFromISR>
 8001bb0:	69fb      	ldr	r3, [r7, #28]
 8001bb2:	4618      	mov	r0, r3
 8001bb4:	f107 0720 	add.w	r7, r7, #32
 8001bb8:	46bd      	mov	sp, r7
 8001bba:	bd80      	pop	{r7, pc}

08001bbc <vTaskStartScheduler>:
 8001bbc:	b580      	push	{r7, lr}
 8001bbe:	b086      	sub	sp, #24
 8001bc0:	af04      	add	r7, sp, #16
 8001bc2:	f643 033c 	movw	r3, #14396	; 0x383c
 8001bc6:	f6c0 0300 	movt	r3, #2048	; 0x800
 8001bca:	f04f 0200 	mov.w	r2, #0
 8001bce:	9200      	str	r2, [sp, #0]
 8001bd0:	f04f 0200 	mov.w	r2, #0
 8001bd4:	9201      	str	r2, [sp, #4]
 8001bd6:	f04f 0200 	mov.w	r2, #0
 8001bda:	9202      	str	r2, [sp, #8]
 8001bdc:	f04f 0200 	mov.w	r2, #0
 8001be0:	9203      	str	r2, [sp, #12]
 8001be2:	f242 00f5 	movw	r0, #8437	; 0x20f5
 8001be6:	f6c0 0000 	movt	r0, #2048	; 0x800
 8001bea:	4619      	mov	r1, r3
 8001bec:	f04f 0280 	mov.w	r2, #128	; 0x80
 8001bf0:	f04f 0300 	mov.w	r3, #0
 8001bf4:	f7ff ff0c 	bl	8001a10 <xTaskGenericCreate>
 8001bf8:	6078      	str	r0, [r7, #4]
 8001bfa:	687b      	ldr	r3, [r7, #4]
 8001bfc:	2b01      	cmp	r3, #1
 8001bfe:	d113      	bne.n	8001c28 <vTaskStartScheduler+0x6c>
 8001c00:	f04f 00bf 	mov.w	r0, #191	; 0xbf
 8001c04:	f380 8811 	msr	BASEPRI, r0
 8001c08:	f240 235c 	movw	r3, #604	; 0x25c
 8001c0c:	f2c2 0300 	movt	r3, #8192	; 0x2000
 8001c10:	f04f 0201 	mov.w	r2, #1
 8001c14:	601a      	str	r2, [r3, #0]
 8001c16:	f240 2350 	movw	r3, #592	; 0x250
 8001c1a:	f2c2 0300 	movt	r3, #8192	; 0x2000
 8001c1e:	f04f 0200 	mov.w	r2, #0
 8001c22:	601a      	str	r2, [r3, #0]
 8001c24:	f000 fe62 	bl	80028ec <xPortStartScheduler>
 8001c28:	f107 0708 	add.w	r7, r7, #8
 8001c2c:	46bd      	mov	sp, r7
 8001c2e:	bd80      	pop	{r7, pc}

08001c30 <vTaskSuspendAll>:
 8001c30:	b480      	push	{r7}
 8001c32:	af00      	add	r7, sp, #0
 8001c34:	f240 2360 	movw	r3, #608	; 0x260
 8001c38:	f2c2 0300 	movt	r3, #8192	; 0x2000
 8001c3c:	681b      	ldr	r3, [r3, #0]
 8001c3e:	f103 0201 	add.w	r2, r3, #1
 8001c42:	f240 2360 	movw	r3, #608	; 0x260
 8001c46:	f2c2 0300 	movt	r3, #8192	; 0x2000
 8001c4a:	601a      	str	r2, [r3, #0]
 8001c4c:	46bd      	mov	sp, r7
 8001c4e:	bc80      	pop	{r7}
 8001c50:	4770      	bx	lr
 8001c52:	bf00      	nop

08001c54 <xTaskResumeAll>:
 8001c54:	b590      	push	{r4, r7, lr}
 8001c56:	b083      	sub	sp, #12
 8001c58:	af00      	add	r7, sp, #0
 8001c5a:	f04f 0300 	mov.w	r3, #0
 8001c5e:	607b      	str	r3, [r7, #4]
 8001c60:	f000 fe7a 	bl	8002958 <vPortEnterCritical>
 8001c64:	f240 2360 	movw	r3, #608	; 0x260
 8001c68:	f2c2 0300 	movt	r3, #8192	; 0x2000
 8001c6c:	681b      	ldr	r3, [r3, #0]
 8001c6e:	f103 32ff 	add.w	r2, r3, #4294967295
 8001c72:	f240 2360 	movw	r3, #608	; 0x260
 8001c76:	f2c2 0300 	movt	r3, #8192	; 0x2000
 8001c7a:	601a      	str	r2, [r3, #0]
 8001c7c:	f240 2360 	movw	r3, #608	; 0x260
 8001c80:	f2c2 0300 	movt	r3, #8192	; 0x2000
 8001c84:	681b      	ldr	r3, [r3, #0]
 8001c86:	2b00      	cmp	r3, #0
 8001c88:	f040 8086 	bne.w	8001d98 <xTaskResumeAll+0x144>
 8001c8c:	f240 234c 	movw	r3, #588	; 0x24c
 8001c90:	f2c2 0300 	movt	r3, #8192	; 0x2000
 8001c94:	681b      	ldr	r3, [r3, #0]
 8001c96:	2b00      	cmp	r3, #0
 8001c98:	d07e      	beq.n	8001d98 <xTaskResumeAll+0x144>
 8001c9a:	f04f 0300 	mov.w	r3, #0
 8001c9e:	603b      	str	r3, [r7, #0]
 8001ca0:	e03d      	b.n	8001d1e <xTaskResumeAll+0xca>
 8001ca2:	f240 230c 	movw	r3, #524	; 0x20c
 8001ca6:	f2c2 0300 	movt	r3, #8192	; 0x2000
 8001caa:	68db      	ldr	r3, [r3, #12]
 8001cac:	68db      	ldr	r3, [r3, #12]
 8001cae:	461c      	mov	r4, r3
 8001cb0:	f104 0318 	add.w	r3, r4, #24
 8001cb4:	4618      	mov	r0, r3
 8001cb6:	f000 fcfb 	bl	80026b0 <vListRemove>
 8001cba:	f104 0304 	add.w	r3, r4, #4
 8001cbe:	4618      	mov	r0, r3
 8001cc0:	f000 fcf6 	bl	80026b0 <vListRemove>
 8001cc4:	6ae2      	ldr	r2, [r4, #44]	; 0x2c
 8001cc6:	f240 2358 	movw	r3, #600	; 0x258
 8001cca:	f2c2 0300 	movt	r3, #8192	; 0x2000
 8001cce:	681b      	ldr	r3, [r3, #0]
 8001cd0:	429a      	cmp	r2, r3
 8001cd2:	d905      	bls.n	8001ce0 <xTaskResumeAll+0x8c>
 8001cd4:	6ae2      	ldr	r2, [r4, #44]	; 0x2c
 8001cd6:	f240 2358 	movw	r3, #600	; 0x258
 8001cda:	f2c2 0300 	movt	r3, #8192	; 0x2000
 8001cde:	601a      	str	r2, [r3, #0]
 8001ce0:	6ae2      	ldr	r2, [r4, #44]	; 0x2c
 8001ce2:	4613      	mov	r3, r2
 8001ce4:	ea4f 0383 	mov.w	r3, r3, lsl #2
 8001ce8:	189b      	adds	r3, r3, r2
 8001cea:	ea4f 0383 	mov.w	r3, r3, lsl #2
 8001cee:	461a      	mov	r2, r3
 8001cf0:	f240 1378 	movw	r3, #376	; 0x178
 8001cf4:	f2c2 0300 	movt	r3, #8192	; 0x2000
 8001cf8:	18d2      	adds	r2, r2, r3
 8001cfa:	f104 0304 	add.w	r3, r4, #4
 8001cfe:	4610      	mov	r0, r2
 8001d00:	4619      	mov	r1, r3
 8001d02:	f000 fcab 	bl	800265c <vListInsertEnd>
 8001d06:	6ae2      	ldr	r2, [r4, #44]	; 0x2c
 8001d08:	f240 1374 	movw	r3, #372	; 0x174
 8001d0c:	f2c2 0300 	movt	r3, #8192	; 0x2000
 8001d10:	681b      	ldr	r3, [r3, #0]
 8001d12:	6adb      	ldr	r3, [r3, #44]	; 0x2c
 8001d14:	429a      	cmp	r2, r3
 8001d16:	d302      	bcc.n	8001d1e <xTaskResumeAll+0xca>
 8001d18:	f04f 0301 	mov.w	r3, #1
 8001d1c:	603b      	str	r3, [r7, #0]
 8001d1e:	f240 230c 	movw	r3, #524	; 0x20c
 8001d22:	f2c2 0300 	movt	r3, #8192	; 0x2000
 8001d26:	681b      	ldr	r3, [r3, #0]
 8001d28:	2b00      	cmp	r3, #0
 8001d2a:	d1ba      	bne.n	8001ca2 <xTaskResumeAll+0x4e>
 8001d2c:	f240 2364 	movw	r3, #612	; 0x264
 8001d30:	f2c2 0300 	movt	r3, #8192	; 0x2000
 8001d34:	681b      	ldr	r3, [r3, #0]
 8001d36:	2b00      	cmp	r3, #0
 8001d38:	d018      	beq.n	8001d6c <xTaskResumeAll+0x118>
 8001d3a:	e00d      	b.n	8001d58 <xTaskResumeAll+0x104>
 8001d3c:	f000 f834 	bl	8001da8 <vTaskIncrementTick>
 8001d40:	f240 2364 	movw	r3, #612	; 0x264
 8001d44:	f2c2 0300 	movt	r3, #8192	; 0x2000
 8001d48:	681b      	ldr	r3, [r3, #0]
 8001d4a:	f103 32ff 	add.w	r2, r3, #4294967295
 8001d4e:	f240 2364 	movw	r3, #612	; 0x264
 8001d52:	f2c2 0300 	movt	r3, #8192	; 0x2000
 8001d56:	601a      	str	r2, [r3, #0]
 8001d58:	f240 2364 	movw	r3, #612	; 0x264
 8001d5c:	f2c2 0300 	movt	r3, #8192	; 0x2000
 8001d60:	681b      	ldr	r3, [r3, #0]
 8001d62:	2b00      	cmp	r3, #0
 8001d64:	d1ea      	bne.n	8001d3c <xTaskResumeAll+0xe8>
 8001d66:	f04f 0301 	mov.w	r3, #1
 8001d6a:	603b      	str	r3, [r7, #0]
 8001d6c:	683b      	ldr	r3, [r7, #0]
 8001d6e:	2b01      	cmp	r3, #1
 8001d70:	d006      	beq.n	8001d80 <xTaskResumeAll+0x12c>
 8001d72:	f240 2368 	movw	r3, #616	; 0x268
 8001d76:	f2c2 0300 	movt	r3, #8192	; 0x2000
 8001d7a:	681b      	ldr	r3, [r3, #0]
 8001d7c:	2b01      	cmp	r3, #1
 8001d7e:	d10b      	bne.n	8001d98 <xTaskResumeAll+0x144>
 8001d80:	f04f 0301 	mov.w	r3, #1
 8001d84:	607b      	str	r3, [r7, #4]
 8001d86:	f240 2368 	movw	r3, #616	; 0x268
 8001d8a:	f2c2 0300 	movt	r3, #8192	; 0x2000
 8001d8e:	f04f 0200 	mov.w	r2, #0
 8001d92:	601a      	str	r2, [r3, #0]
 8001d94:	f000 fdd4 	bl	8002940 <vPortYieldFromISR>
 8001d98:	f000 fdf4 	bl	8002984 <vPortExitCritical>
 8001d9c:	687b      	ldr	r3, [r7, #4]
 8001d9e:	4618      	mov	r0, r3
 8001da0:	f107 070c 	add.w	r7, r7, #12
 8001da4:	46bd      	mov	sp, r7
 8001da6:	bd90      	pop	{r4, r7, pc}

08001da8 <vTaskIncrementTick>:
 8001da8:	b580      	push	{r7, lr}
 8001daa:	b084      	sub	sp, #16
 8001dac:	af00      	add	r7, sp, #0
 8001dae:	f240 2360 	movw	r3, #608	; 0x260
 8001db2:	f2c2 0300 	movt	r3, #8192	; 0x2000
 8001db6:	681b      	ldr	r3, [r3, #0]
 8001db8:	2b00      	cmp	r3, #0
 8001dba:	f040 80c0 	bne.w	8001f3e <vTaskIncrementTick+0x196>
 8001dbe:	f240 2350 	movw	r3, #592	; 0x250
 8001dc2:	f2c2 0300 	movt	r3, #8192	; 0x2000
 8001dc6:	681b      	ldr	r3, [r3, #0]
 8001dc8:	f103 0201 	add.w	r2, r3, #1
 8001dcc:	f240 2350 	movw	r3, #592	; 0x250
 8001dd0:	f2c2 0300 	movt	r3, #8192	; 0x2000
 8001dd4:	601a      	str	r2, [r3, #0]
 8001dd6:	f240 2350 	movw	r3, #592	; 0x250
 8001dda:	f2c2 0300 	movt	r3, #8192	; 0x2000
 8001dde:	681b      	ldr	r3, [r3, #0]
 8001de0:	2b00      	cmp	r3, #0
 8001de2:	d140      	bne.n	8001e66 <vTaskIncrementTick+0xbe>
 8001de4:	f240 2304 	movw	r3, #516	; 0x204
 8001de8:	f2c2 0300 	movt	r3, #8192	; 0x2000
 8001dec:	681b      	ldr	r3, [r3, #0]
 8001dee:	60fb      	str	r3, [r7, #12]
 8001df0:	f240 2308 	movw	r3, #520	; 0x208
 8001df4:	f2c2 0300 	movt	r3, #8192	; 0x2000
 8001df8:	681a      	ldr	r2, [r3, #0]
 8001dfa:	f240 2304 	movw	r3, #516	; 0x204
 8001dfe:	f2c2 0300 	movt	r3, #8192	; 0x2000
 8001e02:	601a      	str	r2, [r3, #0]
 8001e04:	f240 2308 	movw	r3, #520	; 0x208
 8001e08:	f2c2 0300 	movt	r3, #8192	; 0x2000
 8001e0c:	68fa      	ldr	r2, [r7, #12]
 8001e0e:	601a      	str	r2, [r3, #0]
 8001e10:	f240 236c 	movw	r3, #620	; 0x26c
 8001e14:	f2c2 0300 	movt	r3, #8192	; 0x2000
 8001e18:	681b      	ldr	r3, [r3, #0]
 8001e1a:	f103 0201 	add.w	r2, r3, #1
 8001e1e:	f240 236c 	movw	r3, #620	; 0x26c
 8001e22:	f2c2 0300 	movt	r3, #8192	; 0x2000
 8001e26:	601a      	str	r2, [r3, #0]
 8001e28:	f240 2304 	movw	r3, #516	; 0x204
 8001e2c:	f2c2 0300 	movt	r3, #8192	; 0x2000
 8001e30:	681b      	ldr	r3, [r3, #0]
 8001e32:	681b      	ldr	r3, [r3, #0]
 8001e34:	2b00      	cmp	r3, #0
 8001e36:	d107      	bne.n	8001e48 <vTaskIncrementTick+0xa0>
 8001e38:	f240 035c 	movw	r3, #92	; 0x5c
 8001e3c:	f2c2 0300 	movt	r3, #8192	; 0x2000
 8001e40:	f04f 32ff 	mov.w	r2, #4294967295
 8001e44:	601a      	str	r2, [r3, #0]
 8001e46:	e00e      	b.n	8001e66 <vTaskIncrementTick+0xbe>
 8001e48:	f240 2304 	movw	r3, #516	; 0x204
 8001e4c:	f2c2 0300 	movt	r3, #8192	; 0x2000
 8001e50:	681b      	ldr	r3, [r3, #0]
 8001e52:	68db      	ldr	r3, [r3, #12]
 8001e54:	68db      	ldr	r3, [r3, #12]
 8001e56:	60bb      	str	r3, [r7, #8]
 8001e58:	68bb      	ldr	r3, [r7, #8]
 8001e5a:	685a      	ldr	r2, [r3, #4]
 8001e5c:	f240 035c 	movw	r3, #92	; 0x5c
 8001e60:	f2c2 0300 	movt	r3, #8192	; 0x2000
 8001e64:	601a      	str	r2, [r3, #0]
 8001e66:	f240 2350 	movw	r3, #592	; 0x250
 8001e6a:	f2c2 0300 	movt	r3, #8192	; 0x2000
 8001e6e:	681a      	ldr	r2, [r3, #0]
 8001e70:	f240 035c 	movw	r3, #92	; 0x5c
 8001e74:	f2c2 0300 	movt	r3, #8192	; 0x2000
 8001e78:	681b      	ldr	r3, [r3, #0]
 8001e7a:	429a      	cmp	r2, r3
 8001e7c:	d36b      	bcc.n	8001f56 <vTaskIncrementTick+0x1ae>
 8001e7e:	f240 2304 	movw	r3, #516	; 0x204
 8001e82:	f2c2 0300 	movt	r3, #8192	; 0x2000
 8001e86:	681b      	ldr	r3, [r3, #0]
 8001e88:	681b      	ldr	r3, [r3, #0]
 8001e8a:	2b00      	cmp	r3, #0
 8001e8c:	d107      	bne.n	8001e9e <vTaskIncrementTick+0xf6>
 8001e8e:	f240 035c 	movw	r3, #92	; 0x5c
 8001e92:	f2c2 0300 	movt	r3, #8192	; 0x2000
 8001e96:	f04f 32ff 	mov.w	r2, #4294967295
 8001e9a:	601a      	str	r2, [r3, #0]
 8001e9c:	e05b      	b.n	8001f56 <vTaskIncrementTick+0x1ae>
 8001e9e:	f240 2304 	movw	r3, #516	; 0x204
 8001ea2:	f2c2 0300 	movt	r3, #8192	; 0x2000
 8001ea6:	681b      	ldr	r3, [r3, #0]
 8001ea8:	68db      	ldr	r3, [r3, #12]
 8001eaa:	68db      	ldr	r3, [r3, #12]
 8001eac:	60bb      	str	r3, [r7, #8]
 8001eae:	68bb      	ldr	r3, [r7, #8]
 8001eb0:	685b      	ldr	r3, [r3, #4]
 8001eb2:	607b      	str	r3, [r7, #4]
 8001eb4:	f240 2350 	movw	r3, #592	; 0x250
 8001eb8:	f2c2 0300 	movt	r3, #8192	; 0x2000
 8001ebc:	681a      	ldr	r2, [r3, #0]
 8001ebe:	687b      	ldr	r3, [r7, #4]
 8001ec0:	429a      	cmp	r2, r3
 8001ec2:	d206      	bcs.n	8001ed2 <vTaskIncrementTick+0x12a>
 8001ec4:	f240 035c 	movw	r3, #92	; 0x5c
 8001ec8:	f2c2 0300 	movt	r3, #8192	; 0x2000
 8001ecc:	687a      	ldr	r2, [r7, #4]
 8001ece:	601a      	str	r2, [r3, #0]
 8001ed0:	e041      	b.n	8001f56 <vTaskIncrementTick+0x1ae>
 8001ed2:	68bb      	ldr	r3, [r7, #8]
 8001ed4:	f103 0304 	add.w	r3, r3, #4
 8001ed8:	4618      	mov	r0, r3
 8001eda:	f000 fbe9 	bl	80026b0 <vListRemove>
 8001ede:	68bb      	ldr	r3, [r7, #8]
 8001ee0:	6a9b      	ldr	r3, [r3, #40]	; 0x28
 8001ee2:	2b00      	cmp	r3, #0
 8001ee4:	d005      	beq.n	8001ef2 <vTaskIncrementTick+0x14a>
 8001ee6:	68bb      	ldr	r3, [r7, #8]
 8001ee8:	f103 0318 	add.w	r3, r3, #24
 8001eec:	4618      	mov	r0, r3
 8001eee:	f000 fbdf 	bl	80026b0 <vListRemove>
 8001ef2:	68bb      	ldr	r3, [r7, #8]
 8001ef4:	6ada      	ldr	r2, [r3, #44]	; 0x2c
 8001ef6:	f240 2358 	movw	r3, #600	; 0x258
 8001efa:	f2c2 0300 	movt	r3, #8192	; 0x2000
 8001efe:	681b      	ldr	r3, [r3, #0]
 8001f00:	429a      	cmp	r2, r3
 8001f02:	d906      	bls.n	8001f12 <vTaskIncrementTick+0x16a>
 8001f04:	68bb      	ldr	r3, [r7, #8]
 8001f06:	6ada      	ldr	r2, [r3, #44]	; 0x2c
 8001f08:	f240 2358 	movw	r3, #600	; 0x258
 8001f0c:	f2c2 0300 	movt	r3, #8192	; 0x2000
 8001f10:	601a      	str	r2, [r3, #0]
 8001f12:	68bb      	ldr	r3, [r7, #8]
 8001f14:	6ada      	ldr	r2, [r3, #44]	; 0x2c
 8001f16:	4613      	mov	r3, r2
 8001f18:	ea4f 0383 	mov.w	r3, r3, lsl #2
 8001f1c:	189b      	adds	r3, r3, r2
 8001f1e:	ea4f 0383 	mov.w	r3, r3, lsl #2
 8001f22:	461a      	mov	r2, r3
 8001f24:	f240 1378 	movw	r3, #376	; 0x178
 8001f28:	f2c2 0300 	movt	r3, #8192	; 0x2000
 8001f2c:	18d2      	adds	r2, r2, r3
 8001f2e:	68bb      	ldr	r3, [r7, #8]
 8001f30:	f103 0304 	add.w	r3, r3, #4
 8001f34:	4610      	mov	r0, r2
 8001f36:	4619      	mov	r1, r3
 8001f38:	f000 fb90 	bl	800265c <vListInsertEnd>
 8001f3c:	e79f      	b.n	8001e7e <vTaskIncrementTick+0xd6>
 8001f3e:	f240 2364 	movw	r3, #612	; 0x264
 8001f42:	f2c2 0300 	movt	r3, #8192	; 0x2000
 8001f46:	681b      	ldr	r3, [r3, #0]
 8001f48:	f103 0201 	add.w	r2, r3, #1
 8001f4c:	f240 2364 	movw	r3, #612	; 0x264
 8001f50:	f2c2 0300 	movt	r3, #8192	; 0x2000
 8001f54:	601a      	str	r2, [r3, #0]
 8001f56:	f107 0710 	add.w	r7, r7, #16
 8001f5a:	46bd      	mov	sp, r7
 8001f5c:	bd80      	pop	{r7, pc}
 8001f5e:	bf00      	nop

08001f60 <vTaskSwitchContext>:
 8001f60:	b480      	push	{r7}
 8001f62:	b083      	sub	sp, #12
 8001f64:	af00      	add	r7, sp, #0
 8001f66:	f240 2360 	movw	r3, #608	; 0x260
 8001f6a:	f2c2 0300 	movt	r3, #8192	; 0x2000
 8001f6e:	681b      	ldr	r3, [r3, #0]
 8001f70:	2b00      	cmp	r3, #0
 8001f72:	d014      	beq.n	8001f9e <vTaskSwitchContext+0x3e>
 8001f74:	f240 2368 	movw	r3, #616	; 0x268
 8001f78:	f2c2 0300 	movt	r3, #8192	; 0x2000
 8001f7c:	f04f 0201 	mov.w	r2, #1
 8001f80:	601a      	str	r2, [r3, #0]
 8001f82:	e04f      	b.n	8002024 <vTaskSwitchContext+0xc4>
 8001f84:	f240 2358 	movw	r3, #600	; 0x258
 8001f88:	f2c2 0300 	movt	r3, #8192	; 0x2000
 8001f8c:	681b      	ldr	r3, [r3, #0]
 8001f8e:	f103 32ff 	add.w	r2, r3, #4294967295
 8001f92:	f240 2358 	movw	r3, #600	; 0x258
 8001f96:	f2c2 0300 	movt	r3, #8192	; 0x2000
 8001f9a:	601a      	str	r2, [r3, #0]
 8001f9c:	e000      	b.n	8001fa0 <vTaskSwitchContext+0x40>
 8001f9e:	bf00      	nop
 8001fa0:	f240 2358 	movw	r3, #600	; 0x258
 8001fa4:	f2c2 0300 	movt	r3, #8192	; 0x2000
 8001fa8:	681a      	ldr	r2, [r3, #0]
 8001faa:	4613      	mov	r3, r2
 8001fac:	ea4f 0383 	mov.w	r3, r3, lsl #2
 8001fb0:	189b      	adds	r3, r3, r2
 8001fb2:	ea4f 0383 	mov.w	r3, r3, lsl #2
 8001fb6:	461a      	mov	r2, r3
 8001fb8:	f240 1378 	movw	r3, #376	; 0x178
 8001fbc:	f2c2 0300 	movt	r3, #8192	; 0x2000
 8001fc0:	18d3      	adds	r3, r2, r3
 8001fc2:	681b      	ldr	r3, [r3, #0]
 8001fc4:	2b00      	cmp	r3, #0
 8001fc6:	d0dd      	beq.n	8001f84 <vTaskSwitchContext+0x24>
 8001fc8:	f240 2358 	movw	r3, #600	; 0x258
 8001fcc:	f2c2 0300 	movt	r3, #8192	; 0x2000
 8001fd0:	681a      	ldr	r2, [r3, #0]
 8001fd2:	4613      	mov	r3, r2
 8001fd4:	ea4f 0383 	mov.w	r3, r3, lsl #2
 8001fd8:	189b      	adds	r3, r3, r2
 8001fda:	ea4f 0383 	mov.w	r3, r3, lsl #2
 8001fde:	461a      	mov	r2, r3
 8001fe0:	f240 1378 	movw	r3, #376	; 0x178
 8001fe4:	f2c2 0300 	movt	r3, #8192	; 0x2000
 8001fe8:	18d3      	adds	r3, r2, r3
 8001fea:	607b      	str	r3, [r7, #4]
 8001fec:	687b      	ldr	r3, [r7, #4]
 8001fee:	685b      	ldr	r3, [r3, #4]
 8001ff0:	685b      	ldr	r3, [r3, #4]
 8001ff2:	461a      	mov	r2, r3
 8001ff4:	687b      	ldr	r3, [r7, #4]
 8001ff6:	605a      	str	r2, [r3, #4]
 8001ff8:	687b      	ldr	r3, [r7, #4]
 8001ffa:	685a      	ldr	r2, [r3, #4]
 8001ffc:	687b      	ldr	r3, [r7, #4]
 8001ffe:	f103 0308 	add.w	r3, r3, #8
 8002002:	429a      	cmp	r2, r3
 8002004:	d105      	bne.n	8002012 <vTaskSwitchContext+0xb2>
 8002006:	687b      	ldr	r3, [r7, #4]
 8002008:	685b      	ldr	r3, [r3, #4]
 800200a:	685b      	ldr	r3, [r3, #4]
 800200c:	461a      	mov	r2, r3
 800200e:	687b      	ldr	r3, [r7, #4]
 8002010:	605a      	str	r2, [r3, #4]
 8002012:	687b      	ldr	r3, [r7, #4]
 8002014:	685b      	ldr	r3, [r3, #4]
 8002016:	68db      	ldr	r3, [r3, #12]
 8002018:	461a      	mov	r2, r3
 800201a:	f240 1374 	movw	r3, #372	; 0x174
 800201e:	f2c2 0300 	movt	r3, #8192	; 0x2000
 8002022:	601a      	str	r2, [r3, #0]
 8002024:	f107 070c 	add.w	r7, r7, #12
 8002028:	46bd      	mov	sp, r7
 800202a:	bc80      	pop	{r7}
 800202c:	4770      	bx	lr
 800202e:	bf00      	nop

08002030 <xTaskRemoveFromEventList>:
 8002030:	b580      	push	{r7, lr}
 8002032:	b084      	sub	sp, #16
 8002034:	af00      	add	r7, sp, #0
 8002036:	6078      	str	r0, [r7, #4]
 8002038:	687b      	ldr	r3, [r7, #4]
 800203a:	68db      	ldr	r3, [r3, #12]
 800203c:	68db      	ldr	r3, [r3, #12]
 800203e:	60bb      	str	r3, [r7, #8]
 8002040:	68bb      	ldr	r3, [r7, #8]
 8002042:	f103 0318 	add.w	r3, r3, #24
 8002046:	4618      	mov	r0, r3
 8002048:	f000 fb32 	bl	80026b0 <vListRemove>
 800204c:	f240 2360 	movw	r3, #608	; 0x260
 8002050:	f2c2 0300 	movt	r3, #8192	; 0x2000
 8002054:	681b      	ldr	r3, [r3, #0]
 8002056:	2b00      	cmp	r3, #0
 8002058:	d12b      	bne.n	80020b2 <xTaskRemoveFromEventList+0x82>
 800205a:	68bb      	ldr	r3, [r7, #8]
 800205c:	f103 0304 	add.w	r3, r3, #4
 8002060:	4618      	mov	r0, r3
 8002062:	f000 fb25 	bl	80026b0 <vListRemove>
 8002066:	68bb      	ldr	r3, [r7, #8]
 8002068:	6ada      	ldr	r2, [r3, #44]	; 0x2c
 800206a:	f240 2358 	movw	r3, #600	; 0x258
 800206e:	f2c2 0300 	movt	r3, #8192	; 0x2000
 8002072:	681b      	ldr	r3, [r3, #0]
 8002074:	429a      	cmp	r2, r3
 8002076:	d906      	bls.n	8002086 <xTaskRemoveFromEventList+0x56>
 8002078:	68bb      	ldr	r3, [r7, #8]
 800207a:	6ada      	ldr	r2, [r3, #44]	; 0x2c
 800207c:	f240 2358 	movw	r3, #600	; 0x258
 8002080:	f2c2 0300 	movt	r3, #8192	; 0x2000
 8002084:	601a      	str	r2, [r3, #0]
 8002086:	68bb      	ldr	r3, [r7, #8]
 8002088:	6ada      	ldr	r2, [r3, #44]	; 0x2c
 800208a:	4613      	mov	r3, r2
 800208c:	ea4f 0383 	mov.w	r3, r3, lsl #2
 8002090:	189b      	adds	r3, r3, r2
 8002092:	ea4f 0383 	mov.w	r3, r3, lsl #2
 8002096:	461a      	mov	r2, r3
 8002098:	f240 1378 	movw	r3, #376	; 0x178
 800209c:	f2c2 0300 	movt	r3, #8192	; 0x2000
 80020a0:	18d2      	adds	r2, r2, r3
 80020a2:	68bb      	ldr	r3, [r7, #8]
 80020a4:	f103 0304 	add.w	r3, r3, #4
 80020a8:	4610      	mov	r0, r2
 80020aa:	4619      	mov	r1, r3
 80020ac:	f000 fad6 	bl	800265c <vListInsertEnd>
 80020b0:	e009      	b.n	80020c6 <xTaskRemoveFromEventList+0x96>
 80020b2:	68bb      	ldr	r3, [r7, #8]
 80020b4:	f103 0318 	add.w	r3, r3, #24
 80020b8:	f240 200c 	movw	r0, #524	; 0x20c
 80020bc:	f2c2 0000 	movt	r0, #8192	; 0x2000
 80020c0:	4619      	mov	r1, r3
 80020c2:	f000 facb 	bl	800265c <vListInsertEnd>
 80020c6:	68bb      	ldr	r3, [r7, #8]
 80020c8:	6ada      	ldr	r2, [r3, #44]	; 0x2c
 80020ca:	f240 1374 	movw	r3, #372	; 0x174
 80020ce:	f2c2 0300 	movt	r3, #8192	; 0x2000
 80020d2:	681b      	ldr	r3, [r3, #0]
 80020d4:	6adb      	ldr	r3, [r3, #44]	; 0x2c
 80020d6:	429a      	cmp	r2, r3
 80020d8:	d303      	bcc.n	80020e2 <xTaskRemoveFromEventList+0xb2>
 80020da:	f04f 0301 	mov.w	r3, #1
 80020de:	60fb      	str	r3, [r7, #12]
 80020e0:	e002      	b.n	80020e8 <xTaskRemoveFromEventList+0xb8>
 80020e2:	f04f 0300 	mov.w	r3, #0
 80020e6:	60fb      	str	r3, [r7, #12]
 80020e8:	68fb      	ldr	r3, [r7, #12]
 80020ea:	4618      	mov	r0, r3
 80020ec:	f107 0710 	add.w	r7, r7, #16
 80020f0:	46bd      	mov	sp, r7
 80020f2:	bd80      	pop	{r7, pc}

080020f4 <prvIdleTask>:
 80020f4:	b580      	push	{r7, lr}
 80020f6:	b082      	sub	sp, #8
 80020f8:	af00      	add	r7, sp, #0
 80020fa:	6078      	str	r0, [r7, #4]
 80020fc:	e000      	b.n	8002100 <prvIdleTask+0xc>
 80020fe:	bf00      	nop
 8002100:	f000 f89a 	bl	8002238 <prvCheckTasksWaitingTermination>
 8002104:	f240 1378 	movw	r3, #376	; 0x178
 8002108:	f2c2 0300 	movt	r3, #8192	; 0x2000
 800210c:	681b      	ldr	r3, [r3, #0]
 800210e:	2b01      	cmp	r3, #1
 8002110:	d9f5      	bls.n	80020fe <prvIdleTask+0xa>
 8002112:	f000 fc15 	bl	8002940 <vPortYieldFromISR>
 8002116:	e7f3      	b.n	8002100 <prvIdleTask+0xc>

08002118 <prvInitialiseTCBVariables>:
 8002118:	b580      	push	{r7, lr}
 800211a:	b084      	sub	sp, #16
 800211c:	af00      	add	r7, sp, #0
 800211e:	60f8      	str	r0, [r7, #12]
 8002120:	60b9      	str	r1, [r7, #8]
 8002122:	607a      	str	r2, [r7, #4]
 8002124:	603b      	str	r3, [r7, #0]
 8002126:	68fb      	ldr	r3, [r7, #12]
 8002128:	f103 0334 	add.w	r3, r3, #52	; 0x34
 800212c:	461a      	mov	r2, r3
 800212e:	68bb      	ldr	r3, [r7, #8]
 8002130:	4610      	mov	r0, r2
 8002132:	4619      	mov	r1, r3
 8002134:	f04f 0210 	mov.w	r2, #16
 8002138:	f001 fb42 	bl	80037c0 <strncpy>
 800213c:	68fb      	ldr	r3, [r7, #12]
 800213e:	f04f 0200 	mov.w	r2, #0
 8002142:	f883 2043 	strb.w	r2, [r3, #67]	; 0x43
 8002146:	687b      	ldr	r3, [r7, #4]
 8002148:	2b04      	cmp	r3, #4
 800214a:	d902      	bls.n	8002152 <prvInitialiseTCBVariables+0x3a>
 800214c:	f04f 0304 	mov.w	r3, #4
 8002150:	607b      	str	r3, [r7, #4]
 8002152:	68fb      	ldr	r3, [r7, #12]
 8002154:	687a      	ldr	r2, [r7, #4]
 8002156:	62da      	str	r2, [r3, #44]	; 0x2c
 8002158:	68fb      	ldr	r3, [r7, #12]
 800215a:	687a      	ldr	r2, [r7, #4]
 800215c:	645a      	str	r2, [r3, #68]	; 0x44
 800215e:	68fb      	ldr	r3, [r7, #12]
 8002160:	f103 0304 	add.w	r3, r3, #4
 8002164:	4618      	mov	r0, r3
 8002166:	f000 fa6b 	bl	8002640 <vListInitialiseItem>
 800216a:	68fb      	ldr	r3, [r7, #12]
 800216c:	f103 0318 	add.w	r3, r3, #24
 8002170:	4618      	mov	r0, r3
 8002172:	f000 fa65 	bl	8002640 <vListInitialiseItem>
 8002176:	68fb      	ldr	r3, [r7, #12]
 8002178:	68fa      	ldr	r2, [r7, #12]
 800217a:	611a      	str	r2, [r3, #16]
 800217c:	687b      	ldr	r3, [r7, #4]
 800217e:	f1c3 0205 	rsb	r2, r3, #5
 8002182:	68fb      	ldr	r3, [r7, #12]
 8002184:	619a      	str	r2, [r3, #24]
 8002186:	68fb      	ldr	r3, [r7, #12]
 8002188:	68fa      	ldr	r2, [r7, #12]
 800218a:	625a      	str	r2, [r3, #36]	; 0x24
 800218c:	f107 0710 	add.w	r7, r7, #16
 8002190:	46bd      	mov	sp, r7
 8002192:	bd80      	pop	{r7, pc}

08002194 <prvInitialiseTaskLists>:
 8002194:	b580      	push	{r7, lr}
 8002196:	b082      	sub	sp, #8
 8002198:	af00      	add	r7, sp, #0
 800219a:	f04f 0300 	mov.w	r3, #0
 800219e:	607b      	str	r3, [r7, #4]
 80021a0:	e013      	b.n	80021ca <prvInitialiseTaskLists+0x36>
 80021a2:	687a      	ldr	r2, [r7, #4]
 80021a4:	4613      	mov	r3, r2
 80021a6:	ea4f 0383 	mov.w	r3, r3, lsl #2
 80021aa:	189b      	adds	r3, r3, r2
 80021ac:	ea4f 0383 	mov.w	r3, r3, lsl #2
 80021b0:	461a      	mov	r2, r3
 80021b2:	f240 1378 	movw	r3, #376	; 0x178
 80021b6:	f2c2 0300 	movt	r3, #8192	; 0x2000
 80021ba:	18d3      	adds	r3, r2, r3
 80021bc:	4618      	mov	r0, r3
 80021be:	f000 fa1b 	bl	80025f8 <vListInitialise>
 80021c2:	687b      	ldr	r3, [r7, #4]
 80021c4:	f103 0301 	add.w	r3, r3, #1
 80021c8:	607b      	str	r3, [r7, #4]
 80021ca:	687b      	ldr	r3, [r7, #4]
 80021cc:	2b04      	cmp	r3, #4
 80021ce:	d9e8      	bls.n	80021a2 <prvInitialiseTaskLists+0xe>
 80021d0:	f240 10dc 	movw	r0, #476	; 0x1dc
 80021d4:	f2c2 0000 	movt	r0, #8192	; 0x2000
 80021d8:	f000 fa0e 	bl	80025f8 <vListInitialise>
 80021dc:	f240 10f0 	movw	r0, #496	; 0x1f0
 80021e0:	f2c2 0000 	movt	r0, #8192	; 0x2000
 80021e4:	f000 fa08 	bl	80025f8 <vListInitialise>
 80021e8:	f240 200c 	movw	r0, #524	; 0x20c
 80021ec:	f2c2 0000 	movt	r0, #8192	; 0x2000
 80021f0:	f000 fa02 	bl	80025f8 <vListInitialise>
 80021f4:	f240 2020 	movw	r0, #544	; 0x220
 80021f8:	f2c2 0000 	movt	r0, #8192	; 0x2000
 80021fc:	f000 f9fc 	bl	80025f8 <vListInitialise>
 8002200:	f240 2038 	movw	r0, #568	; 0x238
 8002204:	f2c2 0000 	movt	r0, #8192	; 0x2000
 8002208:	f000 f9f6 	bl	80025f8 <vListInitialise>
 800220c:	f240 2304 	movw	r3, #516	; 0x204
 8002210:	f2c2 0300 	movt	r3, #8192	; 0x2000
 8002214:	f240 12dc 	movw	r2, #476	; 0x1dc
 8002218:	f2c2 0200 	movt	r2, #8192	; 0x2000
 800221c:	601a      	str	r2, [r3, #0]
 800221e:	f240 2308 	movw	r3, #520	; 0x208
 8002222:	f2c2 0300 	movt	r3, #8192	; 0x2000
 8002226:	f240 12f0 	movw	r2, #496	; 0x1f0
 800222a:	f2c2 0200 	movt	r2, #8192	; 0x2000
 800222e:	601a      	str	r2, [r3, #0]
 8002230:	f107 0708 	add.w	r7, r7, #8
 8002234:	46bd      	mov	sp, r7
 8002236:	bd80      	pop	{r7, pc}

08002238 <prvCheckTasksWaitingTermination>:
 8002238:	b580      	push	{r7, lr}
 800223a:	b082      	sub	sp, #8
 800223c:	af00      	add	r7, sp, #0
 800223e:	f240 2334 	movw	r3, #564	; 0x234
 8002242:	f2c2 0300 	movt	r3, #8192	; 0x2000
 8002246:	681b      	ldr	r3, [r3, #0]
 8002248:	2b00      	cmp	r3, #0
 800224a:	d03c      	beq.n	80022c6 <prvCheckTasksWaitingTermination+0x8e>
 800224c:	f7ff fcf0 	bl	8001c30 <vTaskSuspendAll>
 8002250:	f240 2320 	movw	r3, #544	; 0x220
 8002254:	f2c2 0300 	movt	r3, #8192	; 0x2000
 8002258:	681b      	ldr	r3, [r3, #0]
 800225a:	2b00      	cmp	r3, #0
 800225c:	bf14      	ite	ne
 800225e:	2300      	movne	r3, #0
 8002260:	2301      	moveq	r3, #1
 8002262:	607b      	str	r3, [r7, #4]
 8002264:	f7ff fcf6 	bl	8001c54 <xTaskResumeAll>
 8002268:	687b      	ldr	r3, [r7, #4]
 800226a:	2b00      	cmp	r3, #0
 800226c:	d12b      	bne.n	80022c6 <prvCheckTasksWaitingTermination+0x8e>
 800226e:	f000 fb73 	bl	8002958 <vPortEnterCritical>
 8002272:	f240 2320 	movw	r3, #544	; 0x220
 8002276:	f2c2 0300 	movt	r3, #8192	; 0x2000
 800227a:	68db      	ldr	r3, [r3, #12]
 800227c:	68db      	ldr	r3, [r3, #12]
 800227e:	603b      	str	r3, [r7, #0]
 8002280:	683b      	ldr	r3, [r7, #0]
 8002282:	f103 0304 	add.w	r3, r3, #4
 8002286:	4618      	mov	r0, r3
 8002288:	f000 fa12 	bl	80026b0 <vListRemove>
 800228c:	f240 234c 	movw	r3, #588	; 0x24c
 8002290:	f2c2 0300 	movt	r3, #8192	; 0x2000
 8002294:	681b      	ldr	r3, [r3, #0]
 8002296:	f103 32ff 	add.w	r2, r3, #4294967295
 800229a:	f240 234c 	movw	r3, #588	; 0x24c
 800229e:	f2c2 0300 	movt	r3, #8192	; 0x2000
 80022a2:	601a      	str	r2, [r3, #0]
 80022a4:	f240 2334 	movw	r3, #564	; 0x234
 80022a8:	f2c2 0300 	movt	r3, #8192	; 0x2000
 80022ac:	681b      	ldr	r3, [r3, #0]
 80022ae:	f103 32ff 	add.w	r2, r3, #4294967295
 80022b2:	f240 2334 	movw	r3, #564	; 0x234
 80022b6:	f2c2 0300 	movt	r3, #8192	; 0x2000
 80022ba:	601a      	str	r2, [r3, #0]
 80022bc:	f000 fb62 	bl	8002984 <vPortExitCritical>
 80022c0:	6838      	ldr	r0, [r7, #0]
 80022c2:	f000 f83f 	bl	8002344 <prvDeleteTCB>
 80022c6:	f107 0708 	add.w	r7, r7, #8
 80022ca:	46bd      	mov	sp, r7
 80022cc:	bd80      	pop	{r7, pc}
 80022ce:	bf00      	nop

080022d0 <prvAllocateTCBAndStack>:
 80022d0:	b580      	push	{r7, lr}
 80022d2:	b084      	sub	sp, #16
 80022d4:	af00      	add	r7, sp, #0
 80022d6:	4603      	mov	r3, r0
 80022d8:	6039      	str	r1, [r7, #0]
 80022da:	80fb      	strh	r3, [r7, #6]
 80022dc:	f04f 0048 	mov.w	r0, #72	; 0x48
 80022e0:	f001 f850 	bl	8003384 <pvPortMalloc>
 80022e4:	4603      	mov	r3, r0
 80022e6:	60fb      	str	r3, [r7, #12]
 80022e8:	68fb      	ldr	r3, [r7, #12]
 80022ea:	2b00      	cmp	r3, #0
 80022ec:	d023      	beq.n	8002336 <prvAllocateTCBAndStack+0x66>
 80022ee:	683b      	ldr	r3, [r7, #0]
 80022f0:	2b00      	cmp	r3, #0
 80022f2:	d107      	bne.n	8002304 <prvAllocateTCBAndStack+0x34>
 80022f4:	88fb      	ldrh	r3, [r7, #6]
 80022f6:	ea4f 0383 	mov.w	r3, r3, lsl #2
 80022fa:	4618      	mov	r0, r3
 80022fc:	f001 f842 	bl	8003384 <pvPortMalloc>
 8002300:	4603      	mov	r3, r0
 8002302:	e000      	b.n	8002306 <prvAllocateTCBAndStack+0x36>
 8002304:	683b      	ldr	r3, [r7, #0]
 8002306:	68fa      	ldr	r2, [r7, #12]
 8002308:	6313      	str	r3, [r2, #48]	; 0x30
 800230a:	68fb      	ldr	r3, [r7, #12]
 800230c:	6b1b      	ldr	r3, [r3, #48]	; 0x30
 800230e:	2b00      	cmp	r3, #0
 8002310:	d106      	bne.n	8002320 <prvAllocateTCBAndStack+0x50>
 8002312:	68f8      	ldr	r0, [r7, #12]
 8002314:	f001 f90e 	bl	8003534 <vPortFree>
 8002318:	f04f 0300 	mov.w	r3, #0
 800231c:	60fb      	str	r3, [r7, #12]
 800231e:	e00a      	b.n	8002336 <prvAllocateTCBAndStack+0x66>
 8002320:	68fb      	ldr	r3, [r7, #12]
 8002322:	6b1a      	ldr	r2, [r3, #48]	; 0x30
 8002324:	88fb      	ldrh	r3, [r7, #6]
 8002326:	ea4f 0383 	mov.w	r3, r3, lsl #2
 800232a:	4610      	mov	r0, r2
 800232c:	f04f 01a5 	mov.w	r1, #165	; 0xa5
 8002330:	461a      	mov	r2, r3
 8002332:	f001 f9eb 	bl	800370c <memset>
 8002336:	68fb      	ldr	r3, [r7, #12]
 8002338:	4618      	mov	r0, r3
 800233a:	f107 0710 	add.w	r7, r7, #16
 800233e:	46bd      	mov	sp, r7
 8002340:	bd80      	pop	{r7, pc}
 8002342:	bf00      	nop

08002344 <prvDeleteTCB>:
 8002344:	b580      	push	{r7, lr}
 8002346:	b082      	sub	sp, #8
 8002348:	af00      	add	r7, sp, #0
 800234a:	6078      	str	r0, [r7, #4]
 800234c:	687b      	ldr	r3, [r7, #4]
 800234e:	6b1b      	ldr	r3, [r3, #48]	; 0x30
 8002350:	4618      	mov	r0, r3
 8002352:	f001 f8ef 	bl	8003534 <vPortFree>
 8002356:	6878      	ldr	r0, [r7, #4]
 8002358:	f001 f8ec 	bl	8003534 <vPortFree>
 800235c:	f107 0708 	add.w	r7, r7, #8
 8002360:	46bd      	mov	sp, r7
 8002362:	bd80      	pop	{r7, pc}

08002364 <vTaskPriorityDisinherit>:
 8002364:	b580      	push	{r7, lr}
 8002366:	b084      	sub	sp, #16
 8002368:	af00      	add	r7, sp, #0
 800236a:	6078      	str	r0, [r7, #4]
 800236c:	687b      	ldr	r3, [r7, #4]
 800236e:	60fb      	str	r3, [r7, #12]
 8002370:	687b      	ldr	r3, [r7, #4]
 8002372:	2b00      	cmp	r3, #0
 8002374:	d03a      	beq.n	80023ec <vTaskPriorityDisinherit+0x88>
 8002376:	68fb      	ldr	r3, [r7, #12]
 8002378:	6ada      	ldr	r2, [r3, #44]	; 0x2c
 800237a:	68fb      	ldr	r3, [r7, #12]
 800237c:	6c5b      	ldr	r3, [r3, #68]	; 0x44
 800237e:	429a      	cmp	r2, r3
 8002380:	d034      	beq.n	80023ec <vTaskPriorityDisinherit+0x88>
 8002382:	68fb      	ldr	r3, [r7, #12]
 8002384:	f103 0304 	add.w	r3, r3, #4
 8002388:	4618      	mov	r0, r3
 800238a:	f000 f991 	bl	80026b0 <vListRemove>
 800238e:	68fb      	ldr	r3, [r7, #12]
 8002390:	6c5a      	ldr	r2, [r3, #68]	; 0x44
 8002392:	68fb      	ldr	r3, [r7, #12]
 8002394:	62da      	str	r2, [r3, #44]	; 0x2c
 8002396:	68fb      	ldr	r3, [r7, #12]
 8002398:	6adb      	ldr	r3, [r3, #44]	; 0x2c
 800239a:	f1c3 0205 	rsb	r2, r3, #5
 800239e:	68fb      	ldr	r3, [r7, #12]
 80023a0:	619a      	str	r2, [r3, #24]
 80023a2:	68fb      	ldr	r3, [r7, #12]
 80023a4:	6ada      	ldr	r2, [r3, #44]	; 0x2c
 80023a6:	f240 2358 	movw	r3, #600	; 0x258
 80023aa:	f2c2 0300 	movt	r3, #8192	; 0x2000
 80023ae:	681b      	ldr	r3, [r3, #0]
 80023b0:	429a      	cmp	r2, r3
 80023b2:	d906      	bls.n	80023c2 <vTaskPriorityDisinherit+0x5e>
 80023b4:	68fb      	ldr	r3, [r7, #12]
 80023b6:	6ada      	ldr	r2, [r3, #44]	; 0x2c
 80023b8:	f240 2358 	movw	r3, #600	; 0x258
 80023bc:	f2c2 0300 	movt	r3, #8192	; 0x2000
 80023c0:	601a      	str	r2, [r3, #0]
 80023c2:	68fb      	ldr	r3, [r7, #12]
 80023c4:	6ada      	ldr	r2, [r3, #44]	; 0x2c
 80023c6:	4613      	mov	r3, r2
 80023c8:	ea4f 0383 	mov.w	r3, r3, lsl #2
 80023cc:	189b      	adds	r3, r3, r2
 80023ce:	ea4f 0383 	mov.w	r3, r3, lsl #2
 80023d2:	461a      	mov	r2, r3
 80023d4:	f240 1378 	movw	r3, #376	; 0x178
 80023d8:	f2c2 0300 	movt	r3, #8192	; 0x2000
 80023dc:	18d2      	adds	r2, r2, r3
 80023de:	68fb      	ldr	r3, [r7, #12]
 80023e0:	f103 0304 	add.w	r3, r3, #4
 80023e4:	4610      	mov	r0, r2
 80023e6:	4619      	mov	r1, r3
 80023e8:	f000 f938 	bl	800265c <vListInsertEnd>
 80023ec:	f107 0710 	add.w	r7, r7, #16
 80023f0:	46bd      	mov	sp, r7
 80023f2:	bd80      	pop	{r7, pc}

080023f4 <USART_ITConfig>:
 80023f4:	b480      	push	{r7}
 80023f6:	b087      	sub	sp, #28
 80023f8:	af00      	add	r7, sp, #0
 80023fa:	6078      	str	r0, [r7, #4]
 80023fc:	4613      	mov	r3, r2
 80023fe:	460a      	mov	r2, r1
 8002400:	807a      	strh	r2, [r7, #2]
 8002402:	707b      	strb	r3, [r7, #1]
 8002404:	f04f 0300 	mov.w	r3, #0
 8002408:	613b      	str	r3, [r7, #16]
 800240a:	f04f 0300 	mov.w	r3, #0
 800240e:	60fb      	str	r3, [r7, #12]
 8002410:	f04f 0300 	mov.w	r3, #0
 8002414:	60bb      	str	r3, [r7, #8]
 8002416:	f04f 0300 	mov.w	r3, #0
 800241a:	617b      	str	r3, [r7, #20]
 800241c:	687b      	ldr	r3, [r7, #4]
 800241e:	617b      	str	r3, [r7, #20]
 8002420:	887b      	ldrh	r3, [r7, #2]
 8002422:	b2db      	uxtb	r3, r3
 8002424:	ea4f 1353 	mov.w	r3, r3, lsr #5
 8002428:	b2db      	uxtb	r3, r3
 800242a:	613b      	str	r3, [r7, #16]
 800242c:	887b      	ldrh	r3, [r7, #2]
 800242e:	f003 031f 	and.w	r3, r3, #31
 8002432:	60fb      	str	r3, [r7, #12]
 8002434:	68fb      	ldr	r3, [r7, #12]
 8002436:	f04f 0201 	mov.w	r2, #1
 800243a:	fa02 f303 	lsl.w	r3, r2, r3
 800243e:	60bb      	str	r3, [r7, #8]
 8002440:	693b      	ldr	r3, [r7, #16]
 8002442:	2b01      	cmp	r3, #1
 8002444:	d104      	bne.n	8002450 <USART_ITConfig+0x5c>
 8002446:	697b      	ldr	r3, [r7, #20]
 8002448:	f103 030c 	add.w	r3, r3, #12
 800244c:	617b      	str	r3, [r7, #20]
 800244e:	e00b      	b.n	8002468 <USART_ITConfig+0x74>
 8002450:	693b      	ldr	r3, [r7, #16]
 8002452:	2b02      	cmp	r3, #2
 8002454:	d104      	bne.n	8002460 <USART_ITConfig+0x6c>
 8002456:	697b      	ldr	r3, [r7, #20]
 8002458:	f103 0310 	add.w	r3, r3, #16
 800245c:	617b      	str	r3, [r7, #20]
 800245e:	e003      	b.n	8002468 <USART_ITConfig+0x74>
 8002460:	697b      	ldr	r3, [r7, #20]
 8002462:	f103 0314 	add.w	r3, r3, #20
 8002466:	617b      	str	r3, [r7, #20]
 8002468:	787b      	ldrb	r3, [r7, #1]
 800246a:	2b00      	cmp	r3, #0
 800246c:	d007      	beq.n	800247e <USART_ITConfig+0x8a>
 800246e:	697b      	ldr	r3, [r7, #20]
 8002470:	697a      	ldr	r2, [r7, #20]
 8002472:	6811      	ldr	r1, [r2, #0]
 8002474:	68ba      	ldr	r2, [r7, #8]
 8002476:	ea41 0202 	orr.w	r2, r1, r2
 800247a:	601a      	str	r2, [r3, #0]
 800247c:	e008      	b.n	8002490 <USART_ITConfig+0x9c>
 800247e:	697b      	ldr	r3, [r7, #20]
 8002480:	697a      	ldr	r2, [r7, #20]
 8002482:	6811      	ldr	r1, [r2, #0]
 8002484:	68ba      	ldr	r2, [r7, #8]
 8002486:	ea6f 0202 	mvn.w	r2, r2
 800248a:	ea01 0202 	and.w	r2, r1, r2
 800248e:	601a      	str	r2, [r3, #0]
 8002490:	f107 071c 	add.w	r7, r7, #28
 8002494:	46bd      	mov	sp, r7
 8002496:	bc80      	pop	{r7}
 8002498:	4770      	bx	lr
 800249a:	bf00      	nop

0800249c <USART_SendData>:
 800249c:	b480      	push	{r7}
 800249e:	b083      	sub	sp, #12
 80024a0:	af00      	add	r7, sp, #0
 80024a2:	6078      	str	r0, [r7, #4]
 80024a4:	460b      	mov	r3, r1
 80024a6:	807b      	strh	r3, [r7, #2]
 80024a8:	887b      	ldrh	r3, [r7, #2]
 80024aa:	ea4f 53c3 	mov.w	r3, r3, lsl #23
 80024ae:	ea4f 53d3 	mov.w	r3, r3, lsr #23
 80024b2:	b29a      	uxth	r2, r3
 80024b4:	687b      	ldr	r3, [r7, #4]
 80024b6:	809a      	strh	r2, [r3, #4]
 80024b8:	f107 070c 	add.w	r7, r7, #12
 80024bc:	46bd      	mov	sp, r7
 80024be:	bc80      	pop	{r7}
 80024c0:	4770      	bx	lr
 80024c2:	bf00      	nop

080024c4 <USART_ReceiveData>:
 80024c4:	b480      	push	{r7}
 80024c6:	b083      	sub	sp, #12
 80024c8:	af00      	add	r7, sp, #0
 80024ca:	6078      	str	r0, [r7, #4]
 80024cc:	687b      	ldr	r3, [r7, #4]
 80024ce:	889b      	ldrh	r3, [r3, #4]
 80024d0:	b29b      	uxth	r3, r3
 80024d2:	ea4f 53c3 	mov.w	r3, r3, lsl #23
 80024d6:	ea4f 53d3 	mov.w	r3, r3, lsr #23
 80024da:	b29b      	uxth	r3, r3
 80024dc:	4618      	mov	r0, r3
 80024de:	f107 070c 	add.w	r7, r7, #12
 80024e2:	46bd      	mov	sp, r7
 80024e4:	bc80      	pop	{r7}
 80024e6:	4770      	bx	lr

080024e8 <USART_GetITStatus>:
 80024e8:	b480      	push	{r7}
 80024ea:	b087      	sub	sp, #28
 80024ec:	af00      	add	r7, sp, #0
 80024ee:	6078      	str	r0, [r7, #4]
 80024f0:	460b      	mov	r3, r1
 80024f2:	807b      	strh	r3, [r7, #2]
 80024f4:	f04f 0300 	mov.w	r3, #0
 80024f8:	60fb      	str	r3, [r7, #12]
 80024fa:	f04f 0300 	mov.w	r3, #0
 80024fe:	617b      	str	r3, [r7, #20]
 8002500:	f04f 0300 	mov.w	r3, #0
 8002504:	60bb      	str	r3, [r7, #8]
 8002506:	f04f 0300 	mov.w	r3, #0
 800250a:	74fb      	strb	r3, [r7, #19]
 800250c:	887b      	ldrh	r3, [r7, #2]
 800250e:	b2db      	uxtb	r3, r3
 8002510:	ea4f 1353 	mov.w	r3, r3, lsr #5
 8002514:	b2db      	uxtb	r3, r3
 8002516:	60bb      	str	r3, [r7, #8]
 8002518:	887b      	ldrh	r3, [r7, #2]
 800251a:	f003 031f 	and.w	r3, r3, #31
 800251e:	617b      	str	r3, [r7, #20]
 8002520:	697b      	ldr	r3, [r7, #20]
 8002522:	f04f 0201 	mov.w	r2, #1
 8002526:	fa02 f303 	lsl.w	r3, r2, r3
 800252a:	617b      	str	r3, [r7, #20]
 800252c:	68bb      	ldr	r3, [r7, #8]
 800252e:	2b01      	cmp	r3, #1
 8002530:	d107      	bne.n	8002542 <USART_GetITStatus+0x5a>
 8002532:	687b      	ldr	r3, [r7, #4]
 8002534:	899b      	ldrh	r3, [r3, #12]
 8002536:	b29b      	uxth	r3, r3
 8002538:	697a      	ldr	r2, [r7, #20]
 800253a:	ea02 0303 	and.w	r3, r2, r3
 800253e:	617b      	str	r3, [r7, #20]
 8002540:	e011      	b.n	8002566 <USART_GetITStatus+0x7e>
 8002542:	68bb      	ldr	r3, [r7, #8]
 8002544:	2b02      	cmp	r3, #2
 8002546:	d107      	bne.n	8002558 <USART_GetITStatus+0x70>
 8002548:	687b      	ldr	r3, [r7, #4]
 800254a:	8a1b      	ldrh	r3, [r3, #16]
 800254c:	b29b      	uxth	r3, r3
 800254e:	697a      	ldr	r2, [r7, #20]
 8002550:	ea02 0303 	and.w	r3, r2, r3
 8002554:	617b      	str	r3, [r7, #20]
 8002556:	e006      	b.n	8002566 <USART_GetITStatus+0x7e>
 8002558:	687b      	ldr	r3, [r7, #4]
 800255a:	8a9b      	ldrh	r3, [r3, #20]
 800255c:	b29b      	uxth	r3, r3
 800255e:	697a      	ldr	r2, [r7, #20]
 8002560:	ea02 0303 	and.w	r3, r2, r3
 8002564:	617b      	str	r3, [r7, #20]
 8002566:	887b      	ldrh	r3, [r7, #2]
 8002568:	ea4f 2313 	mov.w	r3, r3, lsr #8
 800256c:	b29b      	uxth	r3, r3
 800256e:	60fb      	str	r3, [r7, #12]
 8002570:	68fb      	ldr	r3, [r7, #12]
 8002572:	f04f 0201 	mov.w	r2, #1
 8002576:	fa02 f303 	lsl.w	r3, r2, r3
 800257a:	60fb      	str	r3, [r7, #12]
 800257c:	687b      	ldr	r3, [r7, #4]
 800257e:	881b      	ldrh	r3, [r3, #0]
 8002580:	b29b      	uxth	r3, r3
 8002582:	68fa      	ldr	r2, [r7, #12]
 8002584:	ea02 0303 	and.w	r3, r2, r3
 8002588:	60fb      	str	r3, [r7, #12]
 800258a:	697b      	ldr	r3, [r7, #20]
 800258c:	2b00      	cmp	r3, #0
 800258e:	d006      	beq.n	800259e <USART_GetITStatus+0xb6>
 8002590:	68fb      	ldr	r3, [r7, #12]
 8002592:	2b00      	cmp	r3, #0
 8002594:	d003      	beq.n	800259e <USART_GetITStatus+0xb6>
 8002596:	f04f 0301 	mov.w	r3, #1
 800259a:	74fb      	strb	r3, [r7, #19]
 800259c:	e002      	b.n	80025a4 <USART_GetITStatus+0xbc>
 800259e:	f04f 0300 	mov.w	r3, #0
 80025a2:	74fb      	strb	r3, [r7, #19]
 80025a4:	7cfb      	ldrb	r3, [r7, #19]
 80025a6:	4618      	mov	r0, r3
 80025a8:	f107 071c 	add.w	r7, r7, #28
 80025ac:	46bd      	mov	sp, r7
 80025ae:	bc80      	pop	{r7}
 80025b0:	4770      	bx	lr
 80025b2:	bf00      	nop

080025b4 <USART_ClearITPendingBit>:
 80025b4:	b480      	push	{r7}
 80025b6:	b085      	sub	sp, #20
 80025b8:	af00      	add	r7, sp, #0
 80025ba:	6078      	str	r0, [r7, #4]
 80025bc:	460b      	mov	r3, r1
 80025be:	807b      	strh	r3, [r7, #2]
 80025c0:	f04f 0300 	mov.w	r3, #0
 80025c4:	81fb      	strh	r3, [r7, #14]
 80025c6:	f04f 0300 	mov.w	r3, #0
 80025ca:	81bb      	strh	r3, [r7, #12]
 80025cc:	887b      	ldrh	r3, [r7, #2]
 80025ce:	ea4f 2313 	mov.w	r3, r3, lsr #8
 80025d2:	81fb      	strh	r3, [r7, #14]
 80025d4:	89fb      	ldrh	r3, [r7, #14]
 80025d6:	f04f 0201 	mov.w	r2, #1
 80025da:	fa02 f303 	lsl.w	r3, r2, r3
 80025de:	81bb      	strh	r3, [r7, #12]
 80025e0:	89bb      	ldrh	r3, [r7, #12]
 80025e2:	ea6f 0303 	mvn.w	r3, r3
 80025e6:	b29a      	uxth	r2, r3
 80025e8:	687b      	ldr	r3, [r7, #4]
 80025ea:	801a      	strh	r2, [r3, #0]
 80025ec:	f107 0714 	add.w	r7, r7, #20
 80025f0:	46bd      	mov	sp, r7
 80025f2:	bc80      	pop	{r7}
 80025f4:	4770      	bx	lr
 80025f6:	bf00      	nop

080025f8 <vListInitialise>:
 80025f8:	b480      	push	{r7}
 80025fa:	b083      	sub	sp, #12
 80025fc:	af00      	add	r7, sp, #0
 80025fe:	6078      	str	r0, [r7, #4]
 8002600:	687b      	ldr	r3, [r7, #4]
 8002602:	f103 0308 	add.w	r3, r3, #8
 8002606:	461a      	mov	r2, r3
 8002608:	687b      	ldr	r3, [r7, #4]
 800260a:	605a      	str	r2, [r3, #4]
 800260c:	687b      	ldr	r3, [r7, #4]
 800260e:	f04f 32ff 	mov.w	r2, #4294967295
 8002612:	609a      	str	r2, [r3, #8]
 8002614:	687b      	ldr	r3, [r7, #4]
 8002616:	f103 0308 	add.w	r3, r3, #8
 800261a:	461a      	mov	r2, r3
 800261c:	687b      	ldr	r3, [r7, #4]
 800261e:	60da      	str	r2, [r3, #12]
 8002620:	687b      	ldr	r3, [r7, #4]
 8002622:	f103 0308 	add.w	r3, r3, #8
 8002626:	461a      	mov	r2, r3
 8002628:	687b      	ldr	r3, [r7, #4]
 800262a:	611a      	str	r2, [r3, #16]
 800262c:	687b      	ldr	r3, [r7, #4]
 800262e:	f04f 0200 	mov.w	r2, #0
 8002632:	601a      	str	r2, [r3, #0]
 8002634:	f107 070c 	add.w	r7, r7, #12
 8002638:	46bd      	mov	sp, r7
 800263a:	bc80      	pop	{r7}
 800263c:	4770      	bx	lr
 800263e:	bf00      	nop

08002640 <vListInitialiseItem>:
 8002640:	b480      	push	{r7}
 8002642:	b083      	sub	sp, #12
 8002644:	af00      	add	r7, sp, #0
 8002646:	6078      	str	r0, [r7, #4]
 8002648:	687b      	ldr	r3, [r7, #4]
 800264a:	f04f 0200 	mov.w	r2, #0
 800264e:	611a      	str	r2, [r3, #16]
 8002650:	f107 070c 	add.w	r7, r7, #12
 8002654:	46bd      	mov	sp, r7
 8002656:	bc80      	pop	{r7}
 8002658:	4770      	bx	lr
 800265a:	bf00      	nop

0800265c <vListInsertEnd>:
 800265c:	b480      	push	{r7}
 800265e:	b085      	sub	sp, #20
 8002660:	af00      	add	r7, sp, #0
 8002662:	6078      	str	r0, [r7, #4]
 8002664:	6039      	str	r1, [r7, #0]
 8002666:	687b      	ldr	r3, [r7, #4]
 8002668:	685b      	ldr	r3, [r3, #4]
 800266a:	60fb      	str	r3, [r7, #12]
 800266c:	68fb      	ldr	r3, [r7, #12]
 800266e:	685b      	ldr	r3, [r3, #4]
 8002670:	461a      	mov	r2, r3
 8002672:	683b      	ldr	r3, [r7, #0]
 8002674:	605a      	str	r2, [r3, #4]
 8002676:	687b      	ldr	r3, [r7, #4]
 8002678:	685a      	ldr	r2, [r3, #4]
 800267a:	683b      	ldr	r3, [r7, #0]
 800267c:	609a      	str	r2, [r3, #8]
 800267e:	68fb      	ldr	r3, [r7, #12]
 8002680:	685b      	ldr	r3, [r3, #4]
 8002682:	683a      	ldr	r2, [r7, #0]
 8002684:	609a      	str	r2, [r3, #8]
 8002686:	683a      	ldr	r2, [r7, #0]
 8002688:	68fb      	ldr	r3, [r7, #12]
 800268a:	605a      	str	r2, [r3, #4]
 800268c:	683a      	ldr	r2, [r7, #0]
 800268e:	687b      	ldr	r3, [r7, #4]
 8002690:	605a      	str	r2, [r3, #4]
 8002692:	683b      	ldr	r3, [r7, #0]
 8002694:	687a      	ldr	r2, [r7, #4]
 8002696:	611a      	str	r2, [r3, #16]
 8002698:	687b      	ldr	r3, [r7, #4]
 800269a:	681b      	ldr	r3, [r3, #0]
 800269c:	f103 0201 	add.w	r2, r3, #1
 80026a0:	687b      	ldr	r3, [r7, #4]
 80026a2:	601a      	str	r2, [r3, #0]
 80026a4:	f107 0714 	add.w	r7, r7, #20
 80026a8:	46bd      	mov	sp, r7
 80026aa:	bc80      	pop	{r7}
 80026ac:	4770      	bx	lr
 80026ae:	bf00      	nop

080026b0 <vListRemove>:
 80026b0:	b480      	push	{r7}
 80026b2:	b085      	sub	sp, #20
 80026b4:	af00      	add	r7, sp, #0
 80026b6:	6078      	str	r0, [r7, #4]
 80026b8:	687b      	ldr	r3, [r7, #4]
 80026ba:	685b      	ldr	r3, [r3, #4]
 80026bc:	687a      	ldr	r2, [r7, #4]
 80026be:	6892      	ldr	r2, [r2, #8]
 80026c0:	609a      	str	r2, [r3, #8]
 80026c2:	687b      	ldr	r3, [r7, #4]
 80026c4:	689b      	ldr	r3, [r3, #8]
 80026c6:	687a      	ldr	r2, [r7, #4]
 80026c8:	6852      	ldr	r2, [r2, #4]
 80026ca:	605a      	str	r2, [r3, #4]
 80026cc:	687b      	ldr	r3, [r7, #4]
 80026ce:	691b      	ldr	r3, [r3, #16]
 80026d0:	60fb      	str	r3, [r7, #12]
 80026d2:	68fb      	ldr	r3, [r7, #12]
 80026d4:	685a      	ldr	r2, [r3, #4]
 80026d6:	687b      	ldr	r3, [r7, #4]
 80026d8:	429a      	cmp	r2, r3
 80026da:	d103      	bne.n	80026e4 <vListRemove+0x34>
 80026dc:	687b      	ldr	r3, [r7, #4]
 80026de:	689a      	ldr	r2, [r3, #8]
 80026e0:	68fb      	ldr	r3, [r7, #12]
 80026e2:	605a      	str	r2, [r3, #4]
 80026e4:	687b      	ldr	r3, [r7, #4]
 80026e6:	f04f 0200 	mov.w	r2, #0
 80026ea:	611a      	str	r2, [r3, #16]
 80026ec:	68fb      	ldr	r3, [r7, #12]
 80026ee:	681b      	ldr	r3, [r3, #0]
 80026f0:	f103 32ff 	add.w	r2, r3, #4294967295
 80026f4:	68fb      	ldr	r3, [r7, #12]
 80026f6:	601a      	str	r2, [r3, #0]
 80026f8:	f107 0714 	add.w	r7, r7, #20
 80026fc:	46bd      	mov	sp, r7
 80026fe:	bc80      	pop	{r7}
 8002700:	4770      	bx	lr
 8002702:	bf00      	nop

08002704 <xQueueGenericSendFromISR>:
 8002704:	b580      	push	{r7, lr}
 8002706:	b086      	sub	sp, #24
 8002708:	af00      	add	r7, sp, #0
 800270a:	60f8      	str	r0, [r7, #12]
 800270c:	60b9      	str	r1, [r7, #8]
 800270e:	607a      	str	r2, [r7, #4]
 8002710:	603b      	str	r3, [r7, #0]
 8002712:	f04f 0300 	mov.w	r3, #0
 8002716:	613b      	str	r3, [r7, #16]
 8002718:	f04f 00bf 	mov.w	r0, #191	; 0xbf
 800271c:	f380 8811 	msr	BASEPRI, r0
 8002720:	68fb      	ldr	r3, [r7, #12]
 8002722:	6b9b      	ldr	r3, [r3, #56]	; 0x38
 8002724:	461a      	mov	r2, r3
 8002726:	68fb      	ldr	r3, [r7, #12]
 8002728:	6bdb      	ldr	r3, [r3, #60]	; 0x3c
 800272a:	429a      	cmp	r2, r3
 800272c:	d225      	bcs.n	800277a <xQueueGenericSendFromISR+0x76>
 800272e:	68f8      	ldr	r0, [r7, #12]
 8002730:	68b9      	ldr	r1, [r7, #8]
 8002732:	683a      	ldr	r2, [r7, #0]
 8002734:	f000 f82e 	bl	8002794 <prvCopyDataToQueue>
 8002738:	68fb      	ldr	r3, [r7, #12]
 800273a:	6c9b      	ldr	r3, [r3, #72]	; 0x48
 800273c:	f1b3 3fff 	cmp.w	r3, #4294967295
 8002740:	d111      	bne.n	8002766 <xQueueGenericSendFromISR+0x62>
 8002742:	68fb      	ldr	r3, [r7, #12]
 8002744:	6a5b      	ldr	r3, [r3, #36]	; 0x24
 8002746:	2b00      	cmp	r3, #0
 8002748:	d013      	beq.n	8002772 <xQueueGenericSendFromISR+0x6e>
 800274a:	68fb      	ldr	r3, [r7, #12]
 800274c:	f103 0324 	add.w	r3, r3, #36	; 0x24
 8002750:	4618      	mov	r0, r3
 8002752:	f7ff fc6d 	bl	8002030 <xTaskRemoveFromEventList>
 8002756:	4603      	mov	r3, r0
 8002758:	2b00      	cmp	r3, #0
 800275a:	d00a      	beq.n	8002772 <xQueueGenericSendFromISR+0x6e>
 800275c:	687b      	ldr	r3, [r7, #4]
 800275e:	f04f 0201 	mov.w	r2, #1
 8002762:	601a      	str	r2, [r3, #0]
 8002764:	e005      	b.n	8002772 <xQueueGenericSendFromISR+0x6e>
 8002766:	68fb      	ldr	r3, [r7, #12]
 8002768:	6c9b      	ldr	r3, [r3, #72]	; 0x48
 800276a:	f103 0201 	add.w	r2, r3, #1
 800276e:	68fb      	ldr	r3, [r7, #12]
 8002770:	649a      	str	r2, [r3, #72]	; 0x48
 8002772:	f04f 0301 	mov.w	r3, #1
 8002776:	617b      	str	r3, [r7, #20]
 8002778:	e002      	b.n	8002780 <xQueueGenericSendFromISR+0x7c>
 800277a:	f04f 0300 	mov.w	r3, #0
 800277e:	617b      	str	r3, [r7, #20]
 8002780:	f04f 0000 	mov.w	r0, #0
 8002784:	f380 8811 	msr	BASEPRI, r0
 8002788:	697b      	ldr	r3, [r7, #20]
 800278a:	4618      	mov	r0, r3
 800278c:	f107 0718 	add.w	r7, r7, #24
 8002790:	46bd      	mov	sp, r7
 8002792:	bd80      	pop	{r7, pc}

08002794 <prvCopyDataToQueue>:
 8002794:	b580      	push	{r7, lr}
 8002796:	b084      	sub	sp, #16
 8002798:	af00      	add	r7, sp, #0
 800279a:	60f8      	str	r0, [r7, #12]
 800279c:	60b9      	str	r1, [r7, #8]
 800279e:	607a      	str	r2, [r7, #4]
 80027a0:	68fb      	ldr	r3, [r7, #12]
 80027a2:	6c1b      	ldr	r3, [r3, #64]	; 0x40
 80027a4:	2b00      	cmp	r3, #0
 80027a6:	d10d      	bne.n	80027c4 <prvCopyDataToQueue+0x30>
 80027a8:	68fb      	ldr	r3, [r7, #12]
 80027aa:	681b      	ldr	r3, [r3, #0]
 80027ac:	2b00      	cmp	r3, #0
 80027ae:	d148      	bne.n	8002842 <prvCopyDataToQueue+0xae>
 80027b0:	68fb      	ldr	r3, [r7, #12]
 80027b2:	685b      	ldr	r3, [r3, #4]
 80027b4:	4618      	mov	r0, r3
 80027b6:	f7ff fdd5 	bl	8002364 <vTaskPriorityDisinherit>
 80027ba:	68fb      	ldr	r3, [r7, #12]
 80027bc:	f04f 0200 	mov.w	r2, #0
 80027c0:	605a      	str	r2, [r3, #4]
 80027c2:	e03e      	b.n	8002842 <prvCopyDataToQueue+0xae>
 80027c4:	687b      	ldr	r3, [r7, #4]
 80027c6:	2b00      	cmp	r3, #0
 80027c8:	d11a      	bne.n	8002800 <prvCopyDataToQueue+0x6c>
 80027ca:	68fb      	ldr	r3, [r7, #12]
 80027cc:	689a      	ldr	r2, [r3, #8]
 80027ce:	68fb      	ldr	r3, [r7, #12]
 80027d0:	6c1b      	ldr	r3, [r3, #64]	; 0x40
 80027d2:	4610      	mov	r0, r2
 80027d4:	68b9      	ldr	r1, [r7, #8]
 80027d6:	461a      	mov	r2, r3
 80027d8:	f000 fef0 	bl	80035bc <memcpy>
 80027dc:	68fb      	ldr	r3, [r7, #12]
 80027de:	689a      	ldr	r2, [r3, #8]
 80027e0:	68fb      	ldr	r3, [r7, #12]
 80027e2:	6c1b      	ldr	r3, [r3, #64]	; 0x40
 80027e4:	18d2      	adds	r2, r2, r3
 80027e6:	68fb      	ldr	r3, [r7, #12]
 80027e8:	609a      	str	r2, [r3, #8]
 80027ea:	68fb      	ldr	r3, [r7, #12]
 80027ec:	689a      	ldr	r2, [r3, #8]
 80027ee:	68fb      	ldr	r3, [r7, #12]
 80027f0:	685b      	ldr	r3, [r3, #4]
 80027f2:	429a      	cmp	r2, r3
 80027f4:	d325      	bcc.n	8002842 <prvCopyDataToQueue+0xae>
 80027f6:	68fb      	ldr	r3, [r7, #12]
 80027f8:	681a      	ldr	r2, [r3, #0]
 80027fa:	68fb      	ldr	r3, [r7, #12]
 80027fc:	609a      	str	r2, [r3, #8]
 80027fe:	e020      	b.n	8002842 <prvCopyDataToQueue+0xae>
 8002800:	68fb      	ldr	r3, [r7, #12]
 8002802:	68da      	ldr	r2, [r3, #12]
 8002804:	68fb      	ldr	r3, [r7, #12]
 8002806:	6c1b      	ldr	r3, [r3, #64]	; 0x40
 8002808:	4610      	mov	r0, r2
 800280a:	68b9      	ldr	r1, [r7, #8]
 800280c:	461a      	mov	r2, r3
 800280e:	f000 fed5 	bl	80035bc <memcpy>
 8002812:	68fb      	ldr	r3, [r7, #12]
 8002814:	68da      	ldr	r2, [r3, #12]
 8002816:	68fb      	ldr	r3, [r7, #12]
 8002818:	6c1b      	ldr	r3, [r3, #64]	; 0x40
 800281a:	f1c3 0300 	rsb	r3, r3, #0
 800281e:	18d2      	adds	r2, r2, r3
 8002820:	68fb      	ldr	r3, [r7, #12]
 8002822:	60da      	str	r2, [r3, #12]
 8002824:	68fb      	ldr	r3, [r7, #12]
 8002826:	68da      	ldr	r2, [r3, #12]
 8002828:	68fb      	ldr	r3, [r7, #12]
 800282a:	681b      	ldr	r3, [r3, #0]
 800282c:	429a      	cmp	r2, r3
 800282e:	d208      	bcs.n	8002842 <prvCopyDataToQueue+0xae>
 8002830:	68fb      	ldr	r3, [r7, #12]
 8002832:	685a      	ldr	r2, [r3, #4]
 8002834:	68fb      	ldr	r3, [r7, #12]
 8002836:	6c1b      	ldr	r3, [r3, #64]	; 0x40
 8002838:	f1c3 0300 	rsb	r3, r3, #0
 800283c:	18d2      	adds	r2, r2, r3
 800283e:	68fb      	ldr	r3, [r7, #12]
 8002840:	60da      	str	r2, [r3, #12]
 8002842:	68fb      	ldr	r3, [r7, #12]
 8002844:	6b9b      	ldr	r3, [r3, #56]	; 0x38
 8002846:	f103 0201 	add.w	r2, r3, #1
 800284a:	68fb      	ldr	r3, [r7, #12]
 800284c:	639a      	str	r2, [r3, #56]	; 0x38
 800284e:	f107 0710 	add.w	r7, r7, #16
 8002852:	46bd      	mov	sp, r7
 8002854:	bd80      	pop	{r7, pc}
 8002856:	bf00      	nop

08002858 <pxPortInitialiseStack>:
 8002858:	b480      	push	{r7}
 800285a:	b085      	sub	sp, #20
 800285c:	af00      	add	r7, sp, #0
 800285e:	60f8      	str	r0, [r7, #12]
 8002860:	60b9      	str	r1, [r7, #8]
 8002862:	607a      	str	r2, [r7, #4]
 8002864:	68fb      	ldr	r3, [r7, #12]
 8002866:	f1a3 0304 	sub.w	r3, r3, #4
 800286a:	60fb      	str	r3, [r7, #12]
 800286c:	68fb      	ldr	r3, [r7, #12]
 800286e:	f04f 7280 	mov.w	r2, #16777216	; 0x1000000
 8002872:	601a      	str	r2, [r3, #0]
 8002874:	68fb      	ldr	r3, [r7, #12]
 8002876:	f1a3 0304 	sub.w	r3, r3, #4
 800287a:	60fb      	str	r3, [r7, #12]
 800287c:	68ba      	ldr	r2, [r7, #8]
 800287e:	68fb      	ldr	r3, [r7, #12]
 8002880:	601a      	str	r2, [r3, #0]
 8002882:	68fb      	ldr	r3, [r7, #12]
 8002884:	f1a3 0304 	sub.w	r3, r3, #4
 8002888:	60fb      	str	r3, [r7, #12]
 800288a:	68fb      	ldr	r3, [r7, #12]
 800288c:	f04f 0200 	mov.w	r2, #0
 8002890:	601a      	str	r2, [r3, #0]
 8002892:	68fb      	ldr	r3, [r7, #12]
 8002894:	f1a3 0314 	sub.w	r3, r3, #20
 8002898:	60fb      	str	r3, [r7, #12]
 800289a:	687a      	ldr	r2, [r7, #4]
 800289c:	68fb      	ldr	r3, [r7, #12]
 800289e:	601a      	str	r2, [r3, #0]
 80028a0:	68fb      	ldr	r3, [r7, #12]
 80028a2:	f1a3 0320 	sub.w	r3, r3, #32
 80028a6:	60fb      	str	r3, [r7, #12]
 80028a8:	68fb      	ldr	r3, [r7, #12]
 80028aa:	4618      	mov	r0, r3
 80028ac:	f107 0714 	add.w	r7, r7, #20
 80028b0:	46bd      	mov	sp, r7
 80028b2:	bc80      	pop	{r7}
 80028b4:	4770      	bx	lr
 80028b6:	bf00      	nop

080028b8 <SVC_Handler>:
 80028b8:	4b06      	ldr	r3, [pc, #24]	; (80028d4 <pxCurrentTCBConst2>)
 80028ba:	6819      	ldr	r1, [r3, #0]
 80028bc:	6808      	ldr	r0, [r1, #0]
 80028be:	e8b0 0ff0 	ldmia.w	r0!, {r4, r5, r6, r7, r8, r9, sl, fp}
 80028c2:	f380 8809 	msr	PSP, r0
 80028c6:	f04f 0000 	mov.w	r0, #0
 80028ca:	f380 8811 	msr	BASEPRI, r0
 80028ce:	f04e 0e0d 	orr.w	lr, lr, #13
 80028d2:	4770      	bx	lr

080028d4 <pxCurrentTCBConst2>:
 80028d4:	20000174 	.word	0x20000174

080028d8 <vPortStartFirstTask>:
 80028d8:	4803      	ldr	r0, [pc, #12]	; (80028e8 <vPortStartFirstTask+0x10>)
 80028da:	6800      	ldr	r0, [r0, #0]
 80028dc:	6800      	ldr	r0, [r0, #0]
 80028de:	f380 8808 	msr	MSP, r0
 80028e2:	b662      	cpsie	i
 80028e4:	df00      	svc	0
 80028e6:	bf00      	nop
 80028e8:	e000ed08 	.word	0xe000ed08

080028ec <xPortStartScheduler>:
 80028ec:	b580      	push	{r7, lr}
 80028ee:	af00      	add	r7, sp, #0
 80028f0:	f64e 5320 	movw	r3, #60704	; 0xed20
 80028f4:	f2ce 0300 	movt	r3, #57344	; 0xe000
 80028f8:	f64e 5220 	movw	r2, #60704	; 0xed20
 80028fc:	f2ce 0200 	movt	r2, #57344	; 0xe000
 8002900:	6812      	ldr	r2, [r2, #0]
 8002902:	f442 027f 	orr.w	r2, r2, #16711680	; 0xff0000
 8002906:	601a      	str	r2, [r3, #0]
 8002908:	f64e 5320 	movw	r3, #60704	; 0xed20
 800290c:	f2ce 0300 	movt	r3, #57344	; 0xe000
 8002910:	f64e 5220 	movw	r2, #60704	; 0xed20
 8002914:	f2ce 0200 	movt	r2, #57344	; 0xe000
 8002918:	6812      	ldr	r2, [r2, #0]
 800291a:	f042 427f 	orr.w	r2, r2, #4278190080	; 0xff000000
 800291e:	601a      	str	r2, [r3, #0]
 8002920:	f000 f886 	bl	8002a30 <prvSetupTimerInterrupt>
 8002924:	f240 0360 	movw	r3, #96	; 0x60
 8002928:	f2c2 0300 	movt	r3, #8192	; 0x2000
 800292c:	f04f 0200 	mov.w	r2, #0
 8002930:	601a      	str	r2, [r3, #0]
 8002932:	f7ff ffd1 	bl	80028d8 <vPortStartFirstTask>
 8002936:	f04f 0300 	mov.w	r3, #0
 800293a:	4618      	mov	r0, r3
 800293c:	bd80      	pop	{r7, pc}
 800293e:	bf00      	nop

08002940 <vPortYieldFromISR>:
 8002940:	b480      	push	{r7}
 8002942:	af00      	add	r7, sp, #0
 8002944:	f64e 5304 	movw	r3, #60676	; 0xed04
 8002948:	f2ce 0300 	movt	r3, #57344	; 0xe000
 800294c:	f04f 5280 	mov.w	r2, #268435456	; 0x10000000
 8002950:	601a      	str	r2, [r3, #0]
 8002952:	46bd      	mov	sp, r7
 8002954:	bc80      	pop	{r7}
 8002956:	4770      	bx	lr

08002958 <vPortEnterCritical>:
 8002958:	b480      	push	{r7}
 800295a:	af00      	add	r7, sp, #0
 800295c:	f04f 00bf 	mov.w	r0, #191	; 0xbf
 8002960:	f380 8811 	msr	BASEPRI, r0
 8002964:	f240 0360 	movw	r3, #96	; 0x60
 8002968:	f2c2 0300 	movt	r3, #8192	; 0x2000
 800296c:	681b      	ldr	r3, [r3, #0]
 800296e:	f103 0201 	add.w	r2, r3, #1
 8002972:	f240 0360 	movw	r3, #96	; 0x60
 8002976:	f2c2 0300 	movt	r3, #8192	; 0x2000
 800297a:	601a      	str	r2, [r3, #0]
 800297c:	46bd      	mov	sp, r7
 800297e:	bc80      	pop	{r7}
 8002980:	4770      	bx	lr
 8002982:	bf00      	nop

08002984 <vPortExitCritical>:
 8002984:	b480      	push	{r7}
 8002986:	af00      	add	r7, sp, #0
 8002988:	f240 0360 	movw	r3, #96	; 0x60
 800298c:	f2c2 0300 	movt	r3, #8192	; 0x2000
 8002990:	681b      	ldr	r3, [r3, #0]
 8002992:	f103 32ff 	add.w	r2, r3, #4294967295
 8002996:	f240 0360 	movw	r3, #96	; 0x60
 800299a:	f2c2 0300 	movt	r3, #8192	; 0x2000
 800299e:	601a      	str	r2, [r3, #0]
 80029a0:	f240 0360 	movw	r3, #96	; 0x60
 80029a4:	f2c2 0300 	movt	r3, #8192	; 0x2000
 80029a8:	681b      	ldr	r3, [r3, #0]
 80029aa:	2b00      	cmp	r3, #0
 80029ac:	d103      	bne.n	80029b6 <vPortExitCritical+0x32>
 80029ae:	f04f 0000 	mov.w	r0, #0
 80029b2:	f380 8811 	msr	BASEPRI, r0
 80029b6:	46bd      	mov	sp, r7
 80029b8:	bc80      	pop	{r7}
 80029ba:	4770      	bx	lr

080029bc <PendSV_Handler>:
 80029bc:	f3ef 8009 	mrs	r0, PSP
 80029c0:	4b0c      	ldr	r3, [pc, #48]	; (80029f4 <pxCurrentTCBConst>)
 80029c2:	681a      	ldr	r2, [r3, #0]
 80029c4:	e920 0ff0 	stmdb	r0!, {r4, r5, r6, r7, r8, r9, sl, fp}
 80029c8:	6010      	str	r0, [r2, #0]
 80029ca:	e92d 4008 	stmdb	sp!, {r3, lr}
 80029ce:	f04f 00bf 	mov.w	r0, #191	; 0xbf
 80029d2:	f380 8811 	msr	BASEPRI, r0
 80029d6:	f7ff fac3 	bl	8001f60 <vTaskSwitchContext>
 80029da:	f04f 0000 	mov.w	r0, #0
 80029de:	f380 8811 	msr	BASEPRI, r0
 80029e2:	e8bd 4008 	ldmia.w	sp!, {r3, lr}
 80029e6:	6819      	ldr	r1, [r3, #0]
 80029e8:	6808      	ldr	r0, [r1, #0]
 80029ea:	e8b0 0ff0 	ldmia.w	r0!, {r4, r5, r6, r7, r8, r9, sl, fp}
 80029ee:	f380 8809 	msr	PSP, r0
 80029f2:	4770      	bx	lr

080029f4 <pxCurrentTCBConst>:
 80029f4:	20000174 	.word	0x20000174

080029f8 <SysTick_Handler>:
 80029f8:	b580      	push	{r7, lr}
 80029fa:	b082      	sub	sp, #8
 80029fc:	af00      	add	r7, sp, #0
 80029fe:	f64e 5304 	movw	r3, #60676	; 0xed04
 8002a02:	f2ce 0300 	movt	r3, #57344	; 0xe000
 8002a06:	f04f 5280 	mov.w	r2, #268435456	; 0x10000000
 8002a0a:	601a      	str	r2, [r3, #0]
 8002a0c:	f04f 0300 	mov.w	r3, #0
 8002a10:	607b      	str	r3, [r7, #4]
 8002a12:	f04f 00bf 	mov.w	r0, #191	; 0xbf
 8002a16:	f380 8811 	msr	BASEPRI, r0
 8002a1a:	f7ff f9c5 	bl	8001da8 <vTaskIncrementTick>
 8002a1e:	f04f 0000 	mov.w	r0, #0
 8002a22:	f380 8811 	msr	BASEPRI, r0
 8002a26:	f107 0708 	add.w	r7, r7, #8
 8002a2a:	46bd      	mov	sp, r7
 8002a2c:	bd80      	pop	{r7, pc}
 8002a2e:	bf00      	nop

08002a30 <prvSetupTimerInterrupt>:
 8002a30:	b480      	push	{r7}
 8002a32:	af00      	add	r7, sp, #0
 8002a34:	f24e 0314 	movw	r3, #57364	; 0xe014
 8002a38:	f2ce 0300 	movt	r3, #57344	; 0xe000
 8002a3c:	f645 52bf 	movw	r2, #23999	; 0x5dbf
 8002a40:	601a      	str	r2, [r3, #0]
 8002a42:	f24e 0310 	movw	r3, #57360	; 0xe010
 8002a46:	f2ce 0300 	movt	r3, #57344	; 0xe000
 8002a4a:	f04f 0207 	mov.w	r2, #7
 8002a4e:	601a      	str	r2, [r3, #0]
 8002a50:	46bd      	mov	sp, r7
 8002a52:	bc80      	pop	{r7}
 8002a54:	4770      	bx	lr
 8002a56:	bf00      	nop

08002a58 <NVIC_EnableIRQ>:
 8002a58:	b480      	push	{r7}
 8002a5a:	b083      	sub	sp, #12
 8002a5c:	af00      	add	r7, sp, #0
 8002a5e:	4603      	mov	r3, r0
 8002a60:	71fb      	strb	r3, [r7, #7]
 8002a62:	f44f 4361 	mov.w	r3, #57600	; 0xe100
 8002a66:	f2ce 0300 	movt	r3, #57344	; 0xe000
 8002a6a:	f997 2007 	ldrsb.w	r2, [r7, #7]
 8002a6e:	ea4f 1252 	mov.w	r2, r2, lsr #5
 8002a72:	79f9      	ldrb	r1, [r7, #7]
 8002a74:	f001 011f 	and.w	r1, r1, #31
 8002a78:	f04f 0001 	mov.w	r0, #1
 8002a7c:	fa00 f101 	lsl.w	r1, r0, r1
 8002a80:	f843 1022 	str.w	r1, [r3, r2, lsl #2]
 8002a84:	f107 070c 	add.w	r7, r7, #12
 8002a88:	46bd      	mov	sp, r7
 8002a8a:	bc80      	pop	{r7}
 8002a8c:	4770      	bx	lr
 8002a8e:	bf00      	nop

08002a90 <TIM2_IRQHandler>:
 8002a90:	b580      	push	{r7, lr}
 8002a92:	af00      	add	r7, sp, #0
 8002a94:	f04f 4080 	mov.w	r0, #1073741824	; 0x40000000
 8002a98:	f04f 0101 	mov.w	r1, #1
 8002a9c:	f7fd ff2e 	bl	80008fc <TIM_GetITStatus>
 8002aa0:	4603      	mov	r3, r0
 8002aa2:	2b00      	cmp	r3, #0
 8002aa4:	d016      	beq.n	8002ad4 <TIM2_IRQHandler+0x44>
 8002aa6:	f04f 4080 	mov.w	r0, #1073741824	; 0x40000000
 8002aaa:	f04f 0101 	mov.w	r1, #1
 8002aae:	f7fd ff57 	bl	8000960 <TIM_ClearITPendingBit>
 8002ab2:	f04f 4380 	mov.w	r3, #1073741824	; 0x40000000
 8002ab6:	881b      	ldrh	r3, [r3, #0]
 8002ab8:	b29b      	uxth	r3, r3
 8002aba:	f003 0310 	and.w	r3, r3, #16
 8002abe:	2b00      	cmp	r3, #0
 8002ac0:	d004      	beq.n	8002acc <TIM2_IRQHandler+0x3c>
 8002ac2:	f04f 0001 	mov.w	r0, #1
 8002ac6:	f000 f87d 	bl	8002bc4 <DOL_Step>
 8002aca:	e003      	b.n	8002ad4 <TIM2_IRQHandler+0x44>
 8002acc:	f04f 0000 	mov.w	r0, #0
 8002ad0:	f000 f878 	bl	8002bc4 <DOL_Step>
 8002ad4:	bd80      	pop	{r7, pc}
 8002ad6:	bf00      	nop

08002ad8 <DOL_Init>:
 8002ad8:	b580      	push	{r7, lr}
 8002ada:	b086      	sub	sp, #24
 8002adc:	af00      	add	r7, sp, #0
 8002ade:	f04f 0004 	mov.w	r0, #4
 8002ae2:	f04f 0101 	mov.w	r1, #1
 8002ae6:	f7fe fe4b 	bl	8001780 <RCC_APB2PeriphClockCmd>
 8002aea:	f04f 0001 	mov.w	r0, #1
 8002aee:	f04f 0101 	mov.w	r1, #1
 8002af2:	f7fe fe73 	bl	80017dc <RCC_APB1PeriphClockCmd>
 8002af6:	f107 030c 	add.w	r3, r7, #12
 8002afa:	4618      	mov	r0, r3
 8002afc:	f7fd fde2 	bl	80006c4 <TIM_TimeBaseStructInit>
 8002b00:	f04f 0301 	mov.w	r3, #1
 8002b04:	823b      	strh	r3, [r7, #16]
 8002b06:	f04f 0310 	mov.w	r3, #16
 8002b0a:	81fb      	strh	r3, [r7, #14]
 8002b0c:	f107 030c 	add.w	r3, r7, #12
 8002b10:	f04f 4080 	mov.w	r0, #1073741824	; 0x40000000
 8002b14:	4619      	mov	r1, r3
 8002b16:	f7fd fb05 	bl	8000124 <TIM_TimeBaseInit>
 8002b1a:	f04f 4080 	mov.w	r0, #1073741824	; 0x40000000
 8002b1e:	f04f 0103 	mov.w	r1, #3
 8002b22:	f04f 020a 	mov.w	r2, #10
 8002b26:	f04f 030a 	mov.w	r3, #10
 8002b2a:	f7fd fe2f 	bl	800078c <TIM_EncoderInterfaceConfig>
 8002b2e:	f04f 4080 	mov.w	r0, #1073741824	; 0x40000000
 8002b32:	f04f 0101 	mov.w	r1, #1
 8002b36:	f04f 0201 	mov.w	r2, #1
 8002b3a:	f7fd fe01 	bl	8000740 <TIM_ITConfig>
 8002b3e:	f04f 4080 	mov.w	r0, #1073741824	; 0x40000000
 8002b42:	f04f 0101 	mov.w	r1, #1
 8002b46:	f7fd fddb 	bl	8000700 <TIM_Cmd>
 8002b4a:	f44f 7040 	mov.w	r0, #768	; 0x300
 8002b4e:	f000 fb8f 	bl	8003270 <NVIC_PriorityGroupConfig>
 8002b52:	f04f 031c 	mov.w	r3, #28
 8002b56:	723b      	strb	r3, [r7, #8]
 8002b58:	f04f 030f 	mov.w	r3, #15
 8002b5c:	727b      	strb	r3, [r7, #9]
 8002b5e:	f04f 030e 	mov.w	r3, #14
 8002b62:	72bb      	strb	r3, [r7, #10]
 8002b64:	f04f 0301 	mov.w	r3, #1
 8002b68:	72fb      	strb	r3, [r7, #11]
 8002b6a:	f107 0308 	add.w	r3, r7, #8
 8002b6e:	4618      	mov	r0, r3
 8002b70:	f000 fb92 	bl	8003298 <NVIC_Init>
 8002b74:	f04f 0301 	mov.w	r3, #1
 8002b78:	80bb      	strh	r3, [r7, #4]
 8002b7a:	f04f 0348 	mov.w	r3, #72	; 0x48
 8002b7e:	71fb      	strb	r3, [r7, #7]
 8002b80:	f04f 0303 	mov.w	r3, #3
 8002b84:	71bb      	strb	r3, [r7, #6]
 8002b86:	f107 0304 	add.w	r3, r7, #4
 8002b8a:	f44f 6000 	mov.w	r0, #2048	; 0x800
 8002b8e:	f2c4 0001 	movt	r0, #16385	; 0x4001
 8002b92:	4619      	mov	r1, r3
 8002b94:	f7fe fbb2 	bl	80012fc <GPIO_Init>
 8002b98:	f04f 0302 	mov.w	r3, #2
 8002b9c:	80bb      	strh	r3, [r7, #4]
 8002b9e:	f04f 0348 	mov.w	r3, #72	; 0x48
 8002ba2:	71fb      	strb	r3, [r7, #7]
 8002ba4:	f04f 0303 	mov.w	r3, #3
 8002ba8:	71bb      	strb	r3, [r7, #6]
 8002baa:	f107 0304 	add.w	r3, r7, #4
 8002bae:	f44f 6000 	mov.w	r0, #2048	; 0x800
 8002bb2:	f2c4 0001 	movt	r0, #16385	; 0x4001
 8002bb6:	4619      	mov	r1, r3
 8002bb8:	f7fe fba0 	bl	80012fc <GPIO_Init>
 8002bbc:	f107 0718 	add.w	r7, r7, #24
 8002bc0:	46bd      	mov	sp, r7
 8002bc2:	bd80      	pop	{r7, pc}

08002bc4 <DOL_Step>:
 8002bc4:	b580      	push	{r7, lr}
 8002bc6:	b082      	sub	sp, #8
 8002bc8:	af00      	add	r7, sp, #0
 8002bca:	4603      	mov	r3, r0
 8002bcc:	71fb      	strb	r3, [r7, #7]
 8002bce:	79fb      	ldrb	r3, [r7, #7]
 8002bd0:	2b00      	cmp	r3, #0
 8002bd2:	d10d      	bne.n	8002bf0 <DOL_Step+0x2c>
 8002bd4:	f240 2374 	movw	r3, #628	; 0x274
 8002bd8:	f2c2 0300 	movt	r3, #8192	; 0x2000
 8002bdc:	781b      	ldrb	r3, [r3, #0]
 8002bde:	f103 0301 	add.w	r3, r3, #1
 8002be2:	b2da      	uxtb	r2, r3
 8002be4:	f240 2374 	movw	r3, #628	; 0x274
 8002be8:	f2c2 0300 	movt	r3, #8192	; 0x2000
 8002bec:	701a      	strb	r2, [r3, #0]
 8002bee:	e00c      	b.n	8002c0a <DOL_Step+0x46>
 8002bf0:	f240 2374 	movw	r3, #628	; 0x274
 8002bf4:	f2c2 0300 	movt	r3, #8192	; 0x2000
 8002bf8:	781b      	ldrb	r3, [r3, #0]
 8002bfa:	f103 33ff 	add.w	r3, r3, #4294967295
 8002bfe:	b2da      	uxtb	r2, r3
 8002c00:	f240 2374 	movw	r3, #628	; 0x274
 8002c04:	f2c2 0300 	movt	r3, #8192	; 0x2000
 8002c08:	701a      	strb	r2, [r3, #0]
 8002c0a:	f240 2374 	movw	r3, #628	; 0x274
 8002c0e:	f2c2 0300 	movt	r3, #8192	; 0x2000
 8002c12:	781b      	ldrb	r3, [r3, #0]
 8002c14:	f003 0307 	and.w	r3, r3, #7
 8002c18:	b2da      	uxtb	r2, r3
 8002c1a:	f240 2374 	movw	r3, #628	; 0x274
 8002c1e:	f2c2 0300 	movt	r3, #8192	; 0x2000
 8002c22:	701a      	strb	r2, [r3, #0]
 8002c24:	f240 2374 	movw	r3, #628	; 0x274
 8002c28:	f2c2 0300 	movt	r3, #8192	; 0x2000
 8002c2c:	781b      	ldrb	r3, [r3, #0]
 8002c2e:	2b07      	cmp	r3, #7
 8002c30:	f200 8128 	bhi.w	8002e84 <DOL_Step+0x2c0>
 8002c34:	a201      	add	r2, pc, #4	; (adr r2, 8002c3c <DOL_Step+0x78>)
 8002c36:	f852 f023 	ldr.w	pc, [r2, r3, lsl #2]
 8002c3a:	bf00      	nop
 8002c3c:	08002c5d 	.word	0x08002c5d
 8002c40:	08002c9f 	.word	0x08002c9f
 8002c44:	08002ce7 	.word	0x08002ce7
 8002c48:	08002d29 	.word	0x08002d29
 8002c4c:	08002d71 	.word	0x08002d71
 8002c50:	08002db3 	.word	0x08002db3
 8002c54:	08002dfb 	.word	0x08002dfb
 8002c58:	08002e3d 	.word	0x08002e3d
 8002c5c:	f44f 6380 	mov.w	r3, #1024	; 0x400
 8002c60:	f2c4 0300 	movt	r3, #16384	; 0x4000
 8002c64:	f240 2276 	movw	r2, #630	; 0x276
 8002c68:	f2c2 0200 	movt	r2, #8192	; 0x2000
 8002c6c:	8812      	ldrh	r2, [r2, #0]
 8002c6e:	869a      	strh	r2, [r3, #52]	; 0x34
 8002c70:	f44f 6380 	mov.w	r3, #1024	; 0x400
 8002c74:	f2c4 0300 	movt	r3, #16384	; 0x4000
 8002c78:	f04f 0220 	mov.w	r2, #32
 8002c7c:	871a      	strh	r2, [r3, #56]	; 0x38
 8002c7e:	f44f 6380 	mov.w	r3, #1024	; 0x400
 8002c82:	f2c4 0300 	movt	r3, #16384	; 0x4000
 8002c86:	f04f 0220 	mov.w	r2, #32
 8002c8a:	879a      	strh	r2, [r3, #60]	; 0x3c
 8002c8c:	f44f 6380 	mov.w	r3, #1024	; 0x400
 8002c90:	f2c4 0300 	movt	r3, #16384	; 0x4000
 8002c94:	f04f 0220 	mov.w	r2, #32
 8002c98:	f8a3 2040 	strh.w	r2, [r3, #64]	; 0x40
 8002c9c:	e0f9      	b.n	8002e92 <DOL_Step+0x2ce>
 8002c9e:	f44f 6380 	mov.w	r3, #1024	; 0x400
 8002ca2:	f2c4 0300 	movt	r3, #16384	; 0x4000
 8002ca6:	f240 2276 	movw	r2, #630	; 0x276
 8002caa:	f2c2 0200 	movt	r2, #8192	; 0x2000
 8002cae:	8812      	ldrh	r2, [r2, #0]
 8002cb0:	869a      	strh	r2, [r3, #52]	; 0x34
 8002cb2:	f44f 6380 	mov.w	r3, #1024	; 0x400
 8002cb6:	f2c4 0300 	movt	r3, #16384	; 0x4000
 8002cba:	f240 2278 	movw	r2, #632	; 0x278
 8002cbe:	f2c2 0200 	movt	r2, #8192	; 0x2000
 8002cc2:	8812      	ldrh	r2, [r2, #0]
 8002cc4:	871a      	strh	r2, [r3, #56]	; 0x38
 8002cc6:	f44f 6380 	mov.w	r3, #1024	; 0x400
 8002cca:	f2c4 0300 	movt	r3, #16384	; 0x4000
 8002cce:	f04f 0220 	mov.w	r2, #32
 8002cd2:	879a      	strh	r2, [r3, #60]	; 0x3c
 8002cd4:	f44f 6380 	mov.w	r3, #1024	; 0x400
 8002cd8:	f2c4 0300 	movt	r3, #16384	; 0x4000
 8002cdc:	f04f 0220 	mov.w	r2, #32
 8002ce0:	f8a3 2040 	strh.w	r2, [r3, #64]	; 0x40
 8002ce4:	e0d5      	b.n	8002e92 <DOL_Step+0x2ce>
 8002ce6:	f44f 6380 	mov.w	r3, #1024	; 0x400
 8002cea:	f2c4 0300 	movt	r3, #16384	; 0x4000
 8002cee:	f04f 0220 	mov.w	r2, #32
 8002cf2:	869a      	strh	r2, [r3, #52]	; 0x34
 8002cf4:	f44f 6380 	mov.w	r3, #1024	; 0x400
 8002cf8:	f2c4 0300 	movt	r3, #16384	; 0x4000
 8002cfc:	f240 2276 	movw	r2, #630	; 0x276
 8002d00:	f2c2 0200 	movt	r2, #8192	; 0x2000
 8002d04:	8812      	ldrh	r2, [r2, #0]
 8002d06:	871a      	strh	r2, [r3, #56]	; 0x38
 8002d08:	f44f 6380 	mov.w	r3, #1024	; 0x400
 8002d0c:	f2c4 0300 	movt	r3, #16384	; 0x4000
 8002d10:	f04f 0220 	mov.w	r2, #32
 8002d14:	879a      	strh	r2, [r3, #60]	; 0x3c
 8002d16:	f44f 6380 	mov.w	r3, #1024	; 0x400
 8002d1a:	f2c4 0300 	movt	r3, #16384	; 0x4000
 8002d1e:	f04f 0220 	mov.w	r2, #32
 8002d22:	f8a3 2040 	strh.w	r2, [r3, #64]	; 0x40
 8002d26:	e0b4      	b.n	8002e92 <DOL_Step+0x2ce>
 8002d28:	f44f 6380 	mov.w	r3, #1024	; 0x400
 8002d2c:	f2c4 0300 	movt	r3, #16384	; 0x4000
 8002d30:	f04f 0220 	mov.w	r2, #32
 8002d34:	869a      	strh	r2, [r3, #52]	; 0x34
 8002d36:	f44f 6380 	mov.w	r3, #1024	; 0x400
 8002d3a:	f2c4 0300 	movt	r3, #16384	; 0x4000
 8002d3e:	f240 2276 	movw	r2, #630	; 0x276
 8002d42:	f2c2 0200 	movt	r2, #8192	; 0x2000
 8002d46:	8812      	ldrh	r2, [r2, #0]
 8002d48:	871a      	strh	r2, [r3, #56]	; 0x38
 8002d4a:	f44f 6380 	mov.w	r3, #1024	; 0x400
 8002d4e:	f2c4 0300 	movt	r3, #16384	; 0x4000
 8002d52:	f240 2278 	movw	r2, #632	; 0x278
 8002d56:	f2c2 0200 	movt	r2, #8192	; 0x2000
 8002d5a:	8812      	ldrh	r2, [r2, #0]
 8002d5c:	879a      	strh	r2, [r3, #60]	; 0x3c
 8002d5e:	f44f 6380 	mov.w	r3, #1024	; 0x400
 8002d62:	f2c4 0300 	movt	r3, #16384	; 0x4000
 8002d66:	f04f 0220 	mov.w	r2, #32
 8002d6a:	f8a3 2040 	strh.w	r2, [r3, #64]	; 0x40
 8002d6e:	e090      	b.n	8002e92 <DOL_Step+0x2ce>
 8002d70:	f44f 6380 	mov.w	r3, #1024	; 0x400
 8002d74:	f2c4 0300 	movt	r3, #16384	; 0x4000
 8002d78:	f04f 0220 	mov.w	r2, #32
 8002d7c:	869a      	strh	r2, [r3, #52]	; 0x34
 8002d7e:	f44f 6380 	mov.w	r3, #1024	; 0x400
 8002d82:	f2c4 0300 	movt	r3, #16384	; 0x4000
 8002d86:	f04f 0220 	mov.w	r2, #32
 8002d8a:	871a      	strh	r2, [r3, #56]	; 0x38
 8002d8c:	f44f 6380 	mov.w	r3, #1024	; 0x400
 8002d90:	f2c4 0300 	movt	r3, #16384	; 0x4000
 8002d94:	f240 2276 	movw	r2, #630	; 0x276
 8002d98:	f2c2 0200 	movt	r2, #8192	; 0x2000
 8002d9c:	8812      	ldrh	r2, [r2, #0]
 8002d9e:	879a      	strh	r2, [r3, #60]	; 0x3c
 8002da0:	f44f 6380 	mov.w	r3, #1024	; 0x400
 8002da4:	f2c4 0300 	movt	r3, #16384	; 0x4000
 8002da8:	f04f 0220 	mov.w	r2, #32
 8002dac:	f8a3 2040 	strh.w	r2, [r3, #64]	; 0x40
 8002db0:	e06f      	b.n	8002e92 <DOL_Step+0x2ce>
 8002db2:	f44f 6380 	mov.w	r3, #1024	; 0x400
 8002db6:	f2c4 0300 	movt	r3, #16384	; 0x4000
 8002dba:	f04f 0220 	mov.w	r2, #32
 8002dbe:	869a      	strh	r2, [r3, #52]	; 0x34
 8002dc0:	f44f 6380 	mov.w	r3, #1024	; 0x400
 8002dc4:	f2c4 0300 	movt	r3, #16384	; 0x4000
 8002dc8:	f04f 0220 	mov.w	r2, #32
 8002dcc:	871a      	strh	r2, [r3, #56]	; 0x38
 8002dce:	f44f 6380 	mov.w	r3, #1024	; 0x400
 8002dd2:	f2c4 0300 	movt	r3, #16384	; 0x4000
 8002dd6:	f240 2276 	movw	r2, #630	; 0x276
 8002dda:	f2c2 0200 	movt	r2, #8192	; 0x2000
 8002dde:	8812      	ldrh	r2, [r2, #0]
 8002de0:	879a      	strh	r2, [r3, #60]	; 0x3c
 8002de2:	f44f 6380 	mov.w	r3, #1024	; 0x400
 8002de6:	f2c4 0300 	movt	r3, #16384	; 0x4000
 8002dea:	f240 2278 	movw	r2, #632	; 0x278
 8002dee:	f2c2 0200 	movt	r2, #8192	; 0x2000
 8002df2:	8812      	ldrh	r2, [r2, #0]
 8002df4:	f8a3 2040 	strh.w	r2, [r3, #64]	; 0x40
 8002df8:	e04b      	b.n	8002e92 <DOL_Step+0x2ce>
 8002dfa:	f44f 6380 	mov.w	r3, #1024	; 0x400
 8002dfe:	f2c4 0300 	movt	r3, #16384	; 0x4000
 8002e02:	f04f 0220 	mov.w	r2, #32
 8002e06:	869a      	strh	r2, [r3, #52]	; 0x34
 8002e08:	f44f 6380 	mov.w	r3, #1024	; 0x400
 8002e0c:	f2c4 0300 	movt	r3, #16384	; 0x4000
 8002e10:	f04f 0220 	mov.w	r2, #32
 8002e14:	871a      	strh	r2, [r3, #56]	; 0x38
 8002e16:	f44f 6380 	mov.w	r3, #1024	; 0x400
 8002e1a:	f2c4 0300 	movt	r3, #16384	; 0x4000
 8002e1e:	f04f 0220 	mov.w	r2, #32
 8002e22:	879a      	strh	r2, [r3, #60]	; 0x3c
 8002e24:	f44f 6380 	mov.w	r3, #1024	; 0x400
 8002e28:	f2c4 0300 	movt	r3, #16384	; 0x4000
 8002e2c:	f240 2278 	movw	r2, #632	; 0x278
 8002e30:	f2c2 0200 	movt	r2, #8192	; 0x2000
 8002e34:	8812      	ldrh	r2, [r2, #0]
 8002e36:	f8a3 2040 	strh.w	r2, [r3, #64]	; 0x40
 8002e3a:	e02a      	b.n	8002e92 <DOL_Step+0x2ce>
 8002e3c:	f44f 6380 	mov.w	r3, #1024	; 0x400
 8002e40:	f2c4 0300 	movt	r3, #16384	; 0x4000
 8002e44:	f240 2276 	movw	r2, #630	; 0x276
 8002e48:	f2c2 0200 	movt	r2, #8192	; 0x2000
 8002e4c:	8812      	ldrh	r2, [r2, #0]
 8002e4e:	869a      	strh	r2, [r3, #52]	; 0x34
 8002e50:	f44f 6380 	mov.w	r3, #1024	; 0x400
 8002e54:	f2c4 0300 	movt	r3, #16384	; 0x4000
 8002e58:	f04f 0220 	mov.w	r2, #32
 8002e5c:	871a      	strh	r2, [r3, #56]	; 0x38
 8002e5e:	f44f 6380 	mov.w	r3, #1024	; 0x400
 8002e62:	f2c4 0300 	movt	r3, #16384	; 0x4000
 8002e66:	f04f 0220 	mov.w	r2, #32
 8002e6a:	879a      	strh	r2, [r3, #60]	; 0x3c
 8002e6c:	f44f 6380 	mov.w	r3, #1024	; 0x400
 8002e70:	f2c4 0300 	movt	r3, #16384	; 0x4000
 8002e74:	f240 2278 	movw	r2, #632	; 0x278
 8002e78:	f2c2 0200 	movt	r2, #8192	; 0x2000
 8002e7c:	8812      	ldrh	r2, [r2, #0]
 8002e7e:	f8a3 2040 	strh.w	r2, [r3, #64]	; 0x40
 8002e82:	e006      	b.n	8002e92 <DOL_Step+0x2ce>
 8002e84:	f240 2374 	movw	r3, #628	; 0x274
 8002e88:	f2c2 0300 	movt	r3, #8192	; 0x2000
 8002e8c:	f04f 0200 	mov.w	r2, #0
 8002e90:	701a      	strb	r2, [r3, #0]
 8002e92:	f44f 5080 	mov.w	r0, #4096	; 0x1000
 8002e96:	f2c4 0000 	movt	r0, #16384	; 0x4000
 8002e9a:	f04f 0100 	mov.w	r1, #0
 8002e9e:	f7fd fd1f 	bl	80008e0 <TIM_SetCounter>
 8002ea2:	f107 0708 	add.w	r7, r7, #8
 8002ea6:	46bd      	mov	sp, r7
 8002ea8:	bd80      	pop	{r7, pc}
 8002eaa:	bf00      	nop

08002eac <init_timer_6>:
 8002eac:	b580      	push	{r7, lr}
 8002eae:	b084      	sub	sp, #16
 8002eb0:	af00      	add	r7, sp, #0
 8002eb2:	f04f 0010 	mov.w	r0, #16
 8002eb6:	f04f 0101 	mov.w	r1, #1
 8002eba:	f7fe fc8f 	bl	80017dc <RCC_APB1PeriphClockCmd>
 8002ebe:	f107 0304 	add.w	r3, r7, #4
 8002ec2:	4618      	mov	r0, r3
 8002ec4:	f7fd fbfe 	bl	80006c4 <TIM_TimeBaseStructInit>
 8002ec8:	f645 53bf 	movw	r3, #23999	; 0x5dbf
 8002ecc:	80bb      	strh	r3, [r7, #4]
 8002ece:	f44f 63fa 	mov.w	r3, #2000	; 0x7d0
 8002ed2:	813b      	strh	r3, [r7, #8]
 8002ed4:	f107 0304 	add.w	r3, r7, #4
 8002ed8:	f44f 5080 	mov.w	r0, #4096	; 0x1000
 8002edc:	f2c4 0000 	movt	r0, #16384	; 0x4000
 8002ee0:	4619      	mov	r1, r3
 8002ee2:	f7fd f91f 	bl	8000124 <TIM_TimeBaseInit>
 8002ee6:	f44f 5080 	mov.w	r0, #4096	; 0x1000
 8002eea:	f2c4 0000 	movt	r0, #16384	; 0x4000
 8002eee:	f04f 0101 	mov.w	r1, #1
 8002ef2:	f04f 0201 	mov.w	r2, #1
 8002ef6:	f7fd fc23 	bl	8000740 <TIM_ITConfig>
 8002efa:	f44f 5080 	mov.w	r0, #4096	; 0x1000
 8002efe:	f2c4 0000 	movt	r0, #16384	; 0x4000
 8002f02:	f04f 0101 	mov.w	r1, #1
 8002f06:	f7fd fbfb 	bl	8000700 <TIM_Cmd>
 8002f0a:	f04f 0036 	mov.w	r0, #54	; 0x36
 8002f0e:	f7ff fda3 	bl	8002a58 <NVIC_EnableIRQ>
 8002f12:	f107 0710 	add.w	r7, r7, #16
 8002f16:	46bd      	mov	sp, r7
 8002f18:	bd80      	pop	{r7, pc}
 8002f1a:	bf00      	nop

08002f1c <TIM6_DAC_IRQHandler>:
 8002f1c:	b580      	push	{r7, lr}
 8002f1e:	af00      	add	r7, sp, #0
 8002f20:	f44f 5080 	mov.w	r0, #4096	; 0x1000
 8002f24:	f2c4 0000 	movt	r0, #16384	; 0x4000
 8002f28:	f04f 0101 	mov.w	r1, #1
 8002f2c:	f7fd fce6 	bl	80008fc <TIM_GetITStatus>
 8002f30:	4603      	mov	r3, r0
 8002f32:	2b00      	cmp	r3, #0
 8002f34:	f000 811b 	beq.w	800316e <TIM6_DAC_IRQHandler+0x252>
 8002f38:	f44f 5080 	mov.w	r0, #4096	; 0x1000
 8002f3c:	f2c4 0000 	movt	r0, #16384	; 0x4000
 8002f40:	f04f 0101 	mov.w	r1, #1
 8002f44:	f7fd fd0c 	bl	8000960 <TIM_ClearITPendingBit>
 8002f48:	f240 2374 	movw	r3, #628	; 0x274
 8002f4c:	f2c2 0300 	movt	r3, #8192	; 0x2000
 8002f50:	781b      	ldrb	r3, [r3, #0]
 8002f52:	2b07      	cmp	r3, #7
 8002f54:	f200 8104 	bhi.w	8003160 <TIM6_DAC_IRQHandler+0x244>
 8002f58:	a201      	add	r2, pc, #4	; (adr r2, 8002f60 <TIM6_DAC_IRQHandler+0x44>)
 8002f5a:	f852 f023 	ldr.w	pc, [r2, r3, lsl #2]
 8002f5e:	bf00      	nop
 8002f60:	08002f81 	.word	0x08002f81
 8002f64:	08002fbd 	.word	0x08002fbd
 8002f68:	08002ff9 	.word	0x08002ff9
 8002f6c:	08003035 	.word	0x08003035
 8002f70:	08003071 	.word	0x08003071
 8002f74:	080030ad 	.word	0x080030ad
 8002f78:	080030e9 	.word	0x080030e9
 8002f7c:	08003125 	.word	0x08003125
 8002f80:	f44f 6380 	mov.w	r3, #1024	; 0x400
 8002f84:	f2c4 0300 	movt	r3, #16384	; 0x4000
 8002f88:	f04f 020a 	mov.w	r2, #10
 8002f8c:	869a      	strh	r2, [r3, #52]	; 0x34
 8002f8e:	f44f 6380 	mov.w	r3, #1024	; 0x400
 8002f92:	f2c4 0300 	movt	r3, #16384	; 0x4000
 8002f96:	f04f 0220 	mov.w	r2, #32
 8002f9a:	871a      	strh	r2, [r3, #56]	; 0x38
 8002f9c:	f44f 6380 	mov.w	r3, #1024	; 0x400
 8002fa0:	f2c4 0300 	movt	r3, #16384	; 0x4000
 8002fa4:	f04f 0220 	mov.w	r2, #32
 8002fa8:	879a      	strh	r2, [r3, #60]	; 0x3c
 8002faa:	f44f 6380 	mov.w	r3, #1024	; 0x400
 8002fae:	f2c4 0300 	movt	r3, #16384	; 0x4000
 8002fb2:	f04f 0220 	mov.w	r2, #32
 8002fb6:	f8a3 2040 	strh.w	r2, [r3, #64]	; 0x40
 8002fba:	e0d8      	b.n	800316e <TIM6_DAC_IRQHandler+0x252>
 8002fbc:	f44f 6380 	mov.w	r3, #1024	; 0x400
 8002fc0:	f2c4 0300 	movt	r3, #16384	; 0x4000
 8002fc4:	f04f 020a 	mov.w	r2, #10
 8002fc8:	869a      	strh	r2, [r3, #52]	; 0x34
 8002fca:	f44f 6380 	mov.w	r3, #1024	; 0x400
 8002fce:	f2c4 0300 	movt	r3, #16384	; 0x4000
 8002fd2:	f04f 020a 	mov.w	r2, #10
 8002fd6:	871a      	strh	r2, [r3, #56]	; 0x38
 8002fd8:	f44f 6380 	mov.w	r3, #1024	; 0x400
 8002fdc:	f2c4 0300 	movt	r3, #16384	; 0x4000
 8002fe0:	f04f 0220 	mov.w	r2, #32
 8002fe4:	879a      	strh	r2, [r3, #60]	; 0x3c
 8002fe6:	f44f 6380 	mov.w	r3, #1024	; 0x400
 8002fea:	f2c4 0300 	movt	r3, #16384	; 0x4000
 8002fee:	f04f 0220 	mov.w	r2, #32
 8002ff2:	f8a3 2040 	strh.w	r2, [r3, #64]	; 0x40
 8002ff6:	e0ba      	b.n	800316e <TIM6_DAC_IRQHandler+0x252>
 8002ff8:	f44f 6380 	mov.w	r3, #1024	; 0x400
 8002ffc:	f2c4 0300 	movt	r3, #16384	; 0x4000
 8003000:	f04f 0220 	mov.w	r2, #32
 8003004:	869a      	strh	r2, [r3, #52]	; 0x34
 8003006:	f44f 6380 	mov.w	r3, #1024	; 0x400
 800300a:	f2c4 0300 	movt	r3, #16384	; 0x4000
 800300e:	f04f 020a 	mov.w	r2, #10
 8003012:	871a      	strh	r2, [r3, #56]	; 0x38
 8003014:	f44f 6380 	mov.w	r3, #1024	; 0x400
 8003018:	f2c4 0300 	movt	r3, #16384	; 0x4000
 800301c:	f04f 0220 	mov.w	r2, #32
 8003020:	879a      	strh	r2, [r3, #60]	; 0x3c
 8003022:	f44f 6380 	mov.w	r3, #1024	; 0x400
 8003026:	f2c4 0300 	movt	r3, #16384	; 0x4000
 800302a:	f04f 0220 	mov.w	r2, #32
 800302e:	f8a3 2040 	strh.w	r2, [r3, #64]	; 0x40
 8003032:	e09c      	b.n	800316e <TIM6_DAC_IRQHandler+0x252>
 8003034:	f44f 6380 	mov.w	r3, #1024	; 0x400
 8003038:	f2c4 0300 	movt	r3, #16384	; 0x4000
 800303c:	f04f 0220 	mov.w	r2, #32
 8003040:	869a      	strh	r2, [r3, #52]	; 0x34
 8003042:	f44f 6380 	mov.w	r3, #1024	; 0x400
 8003046:	f2c4 0300 	movt	r3, #16384	; 0x4000
 800304a:	f04f 020a 	mov.w	r2, #10
 800304e:	871a      	strh	r2, [r3, #56]	; 0x38
 8003050:	f44f 6380 	mov.w	r3, #1024	; 0x400
 8003054:	f2c4 0300 	movt	r3, #16384	; 0x4000
 8003058:	f04f 020a 	mov.w	r2, #10
 800305c:	879a      	strh	r2, [r3, #60]	; 0x3c
 800305e:	f44f 6380 	mov.w	r3, #1024	; 0x400
 8003062:	f2c4 0300 	movt	r3, #16384	; 0x4000
 8003066:	f04f 0220 	mov.w	r2, #32
 800306a:	f8a3 2040 	strh.w	r2, [r3, #64]	; 0x40
 800306e:	e07e      	b.n	800316e <TIM6_DAC_IRQHandler+0x252>
 8003070:	f44f 6380 	mov.w	r3, #1024	; 0x400
 8003074:	f2c4 0300 	movt	r3, #16384	; 0x4000
 8003078:	f04f 0220 	mov.w	r2, #32
 800307c:	869a      	strh	r2, [r3, #52]	; 0x34
 800307e:	f44f 6380 	mov.w	r3, #1024	; 0x400
 8003082:	f2c4 0300 	movt	r3, #16384	; 0x4000
 8003086:	f04f 0220 	mov.w	r2, #32
 800308a:	871a      	strh	r2, [r3, #56]	; 0x38
 800308c:	f44f 6380 	mov.w	r3, #1024	; 0x400
 8003090:	f2c4 0300 	movt	r3, #16384	; 0x4000
 8003094:	f04f 020a 	mov.w	r2, #10
 8003098:	879a      	strh	r2, [r3, #60]	; 0x3c
 800309a:	f44f 6380 	mov.w	r3, #1024	; 0x400
 800309e:	f2c4 0300 	movt	r3, #16384	; 0x4000
 80030a2:	f04f 0220 	mov.w	r2, #32
 80030a6:	f8a3 2040 	strh.w	r2, [r3, #64]	; 0x40
 80030aa:	e060      	b.n	800316e <TIM6_DAC_IRQHandler+0x252>
 80030ac:	f44f 6380 	mov.w	r3, #1024	; 0x400
 80030b0:	f2c4 0300 	movt	r3, #16384	; 0x4000
 80030b4:	f04f 0220 	mov.w	r2, #32
 80030b8:	869a      	strh	r2, [r3, #52]	; 0x34
 80030ba:	f44f 6380 	mov.w	r3, #1024	; 0x400
 80030be:	f2c4 0300 	movt	r3, #16384	; 0x4000
 80030c2:	f04f 0220 	mov.w	r2, #32
 80030c6:	871a      	strh	r2, [r3, #56]	; 0x38
 80030c8:	f44f 6380 	mov.w	r3, #1024	; 0x400
 80030cc:	f2c4 0300 	movt	r3, #16384	; 0x4000
 80030d0:	f04f 020a 	mov.w	r2, #10
 80030d4:	879a      	strh	r2, [r3, #60]	; 0x3c
 80030d6:	f44f 6380 	mov.w	r3, #1024	; 0x400
 80030da:	f2c4 0300 	movt	r3, #16384	; 0x4000
 80030de:	f04f 020a 	mov.w	r2, #10
 80030e2:	f8a3 2040 	strh.w	r2, [r3, #64]	; 0x40
 80030e6:	e042      	b.n	800316e <TIM6_DAC_IRQHandler+0x252>
 80030e8:	f44f 6380 	mov.w	r3, #1024	; 0x400
 80030ec:	f2c4 0300 	movt	r3, #16384	; 0x4000
 80030f0:	f04f 0220 	mov.w	r2, #32
 80030f4:	869a      	strh	r2, [r3, #52]	; 0x34
 80030f6:	f44f 6380 	mov.w	r3, #1024	; 0x400
 80030fa:	f2c4 0300 	movt	r3, #16384	; 0x4000
 80030fe:	f04f 0220 	mov.w	r2, #32
 8003102:	871a      	strh	r2, [r3, #56]	; 0x38
 8003104:	f44f 6380 	mov.w	r3, #1024	; 0x400
 8003108:	f2c4 0300 	movt	r3, #16384	; 0x4000
 800310c:	f04f 0220 	mov.w	r2, #32
 8003110:	879a      	strh	r2, [r3, #60]	; 0x3c
 8003112:	f44f 6380 	mov.w	r3, #1024	; 0x400
 8003116:	f2c4 0300 	movt	r3, #16384	; 0x4000
 800311a:	f04f 020a 	mov.w	r2, #10
 800311e:	f8a3 2040 	strh.w	r2, [r3, #64]	; 0x40
 8003122:	e024      	b.n	800316e <TIM6_DAC_IRQHandler+0x252>
 8003124:	f44f 6380 	mov.w	r3, #1024	; 0x400
 8003128:	f2c4 0300 	movt	r3, #16384	; 0x4000
 800312c:	f04f 020a 	mov.w	r2, #10
 8003130:	869a      	strh	r2, [r3, #52]	; 0x34
 8003132:	f44f 6380 	mov.w	r3, #1024	; 0x400
 8003136:	f2c4 0300 	movt	r3, #16384	; 0x4000
 800313a:	f04f 0220 	mov.w	r2, #32
 800313e:	871a      	strh	r2, [r3, #56]	; 0x38
 8003140:	f44f 6380 	mov.w	r3, #1024	; 0x400
 8003144:	f2c4 0300 	movt	r3, #16384	; 0x4000
 8003148:	f04f 0220 	mov.w	r2, #32
 800314c:	879a      	strh	r2, [r3, #60]	; 0x3c
 800314e:	f44f 6380 	mov.w	r3, #1024	; 0x400
 8003152:	f2c4 0300 	movt	r3, #16384	; 0x4000
 8003156:	f04f 020a 	mov.w	r2, #10
 800315a:	f8a3 2040 	strh.w	r2, [r3, #64]	; 0x40
 800315e:	e006      	b.n	800316e <TIM6_DAC_IRQHandler+0x252>
 8003160:	f240 2374 	movw	r3, #628	; 0x274
 8003164:	f2c2 0300 	movt	r3, #8192	; 0x2000
 8003168:	f04f 0200 	mov.w	r2, #0
 800316c:	701a      	strb	r2, [r3, #0]
 800316e:	bd80      	pop	{r7, pc}

08003170 <Ext_Int_Init>:
 8003170:	b580      	push	{r7, lr}
 8003172:	b084      	sub	sp, #16
 8003174:	af00      	add	r7, sp, #0
 8003176:	f04f 0004 	mov.w	r0, #4
 800317a:	f04f 0101 	mov.w	r1, #1
 800317e:	f7fe faff 	bl	8001780 <RCC_APB2PeriphClockCmd>
 8003182:	f04f 0001 	mov.w	r0, #1
 8003186:	f04f 0101 	mov.w	r1, #1
 800318a:	f7fe faf9 	bl	8001780 <RCC_APB2PeriphClockCmd>
 800318e:	f04f 0308 	mov.w	r3, #8
 8003192:	81bb      	strh	r3, [r7, #12]
 8003194:	f04f 0348 	mov.w	r3, #72	; 0x48
 8003198:	73fb      	strb	r3, [r7, #15]
 800319a:	f04f 0303 	mov.w	r3, #3
 800319e:	73bb      	strb	r3, [r7, #14]
 80031a0:	f107 030c 	add.w	r3, r7, #12
 80031a4:	f44f 6000 	mov.w	r0, #2048	; 0x800
 80031a8:	f2c4 0001 	movt	r0, #16385	; 0x4001
 80031ac:	4619      	mov	r1, r3
 80031ae:	f7fe f8a5 	bl	80012fc <GPIO_Init>
 80031b2:	f04f 0310 	mov.w	r3, #16
 80031b6:	81bb      	strh	r3, [r7, #12]
 80031b8:	f04f 0348 	mov.w	r3, #72	; 0x48
 80031bc:	73fb      	strb	r3, [r7, #15]
 80031be:	f04f 0303 	mov.w	r3, #3
 80031c2:	73bb      	strb	r3, [r7, #14]
 80031c4:	f107 030c 	add.w	r3, r7, #12
 80031c8:	f44f 6000 	mov.w	r0, #2048	; 0x800
 80031cc:	f2c4 0001 	movt	r0, #16385	; 0x4001
 80031d0:	4619      	mov	r1, r3
 80031d2:	f7fe f893 	bl	80012fc <GPIO_Init>
 80031d6:	f04f 0000 	mov.w	r0, #0
 80031da:	f04f 0103 	mov.w	r1, #3
 80031de:	f7fe fa1f 	bl	8001620 <GPIO_EXTILineConfig>
 80031e2:	f04f 0308 	mov.w	r3, #8
 80031e6:	607b      	str	r3, [r7, #4]
 80031e8:	f04f 0300 	mov.w	r3, #0
 80031ec:	723b      	strb	r3, [r7, #8]
 80031ee:	f04f 0308 	mov.w	r3, #8
 80031f2:	727b      	strb	r3, [r7, #9]
 80031f4:	f04f 0301 	mov.w	r3, #1
 80031f8:	72bb      	strb	r3, [r7, #10]
 80031fa:	f107 0304 	add.w	r3, r7, #4
 80031fe:	4618      	mov	r0, r3
 8003200:	f7fe fb1a 	bl	8001838 <EXTI_Init>
 8003204:	f04f 0309 	mov.w	r3, #9
 8003208:	703b      	strb	r3, [r7, #0]
 800320a:	f04f 030f 	mov.w	r3, #15
 800320e:	707b      	strb	r3, [r7, #1]
 8003210:	f04f 030f 	mov.w	r3, #15
 8003214:	70bb      	strb	r3, [r7, #2]
 8003216:	f04f 0301 	mov.w	r3, #1
 800321a:	70fb      	strb	r3, [r7, #3]
 800321c:	463b      	mov	r3, r7
 800321e:	4618      	mov	r0, r3
 8003220:	f000 f83a 	bl	8003298 <NVIC_Init>
 8003224:	f107 0710 	add.w	r7, r7, #16
 8003228:	46bd      	mov	sp, r7
 800322a:	bd80      	pop	{r7, pc}

0800322c <EXTI3_IRQHandler>:
 800322c:	b580      	push	{r7, lr}
 800322e:	af00      	add	r7, sp, #0
 8003230:	f04f 0008 	mov.w	r0, #8
 8003234:	f7fe fbac 	bl	8001990 <EXTI_GetITStatus>
 8003238:	4603      	mov	r3, r0
 800323a:	2b00      	cmp	r3, #0
 800323c:	d013      	beq.n	8003266 <EXTI3_IRQHandler+0x3a>
 800323e:	f44f 6000 	mov.w	r0, #2048	; 0x800
 8003242:	f2c4 0001 	movt	r0, #16385	; 0x4001
 8003246:	f04f 0110 	mov.w	r1, #16
 800324a:	f7fe f937 	bl	80014bc <GPIO_ReadInputDataBit>
 800324e:	4603      	mov	r3, r0
 8003250:	2b00      	cmp	r3, #0
 8003252:	d004      	beq.n	800325e <EXTI3_IRQHandler+0x32>
 8003254:	f04f 0000 	mov.w	r0, #0
 8003258:	f7ff fcb4 	bl	8002bc4 <DOL_Step>
 800325c:	e003      	b.n	8003266 <EXTI3_IRQHandler+0x3a>
 800325e:	f04f 0001 	mov.w	r0, #1
 8003262:	f7ff fcaf 	bl	8002bc4 <DOL_Step>
 8003266:	f04f 0008 	mov.w	r0, #8
 800326a:	f7fe fbc1 	bl	80019f0 <EXTI_ClearITPendingBit>
 800326e:	bd80      	pop	{r7, pc}

08003270 <NVIC_PriorityGroupConfig>:
 8003270:	b480      	push	{r7}
 8003272:	b083      	sub	sp, #12
 8003274:	af00      	add	r7, sp, #0
 8003276:	6078      	str	r0, [r7, #4]
 8003278:	f44f 436d 	mov.w	r3, #60672	; 0xed00
 800327c:	f2ce 0300 	movt	r3, #57344	; 0xe000
 8003280:	687a      	ldr	r2, [r7, #4]
 8003282:	f042 62be 	orr.w	r2, r2, #99614720	; 0x5f00000
 8003286:	f442 2220 	orr.w	r2, r2, #655360	; 0xa0000
 800328a:	60da      	str	r2, [r3, #12]
 800328c:	f107 070c 	add.w	r7, r7, #12
 8003290:	46bd      	mov	sp, r7
 8003292:	bc80      	pop	{r7}
 8003294:	4770      	bx	lr
 8003296:	bf00      	nop

08003298 <NVIC_Init>:
 8003298:	b480      	push	{r7}
 800329a:	b087      	sub	sp, #28
 800329c:	af00      	add	r7, sp, #0
 800329e:	6078      	str	r0, [r7, #4]
 80032a0:	f04f 0300 	mov.w	r3, #0
 80032a4:	617b      	str	r3, [r7, #20]
 80032a6:	f04f 0300 	mov.w	r3, #0
 80032aa:	613b      	str	r3, [r7, #16]
 80032ac:	f04f 030f 	mov.w	r3, #15
 80032b0:	60fb      	str	r3, [r7, #12]
 80032b2:	687b      	ldr	r3, [r7, #4]
 80032b4:	78db      	ldrb	r3, [r3, #3]
 80032b6:	2b00      	cmp	r3, #0
 80032b8:	d049      	beq.n	800334e <NVIC_Init+0xb6>
 80032ba:	f44f 436d 	mov.w	r3, #60672	; 0xed00
 80032be:	f2ce 0300 	movt	r3, #57344	; 0xe000
 80032c2:	68db      	ldr	r3, [r3, #12]
 80032c4:	ea6f 0303 	mvn.w	r3, r3
 80032c8:	f403 63e0 	and.w	r3, r3, #1792	; 0x700
 80032cc:	ea4f 2313 	mov.w	r3, r3, lsr #8
 80032d0:	617b      	str	r3, [r7, #20]
 80032d2:	697b      	ldr	r3, [r7, #20]
 80032d4:	f1c3 0304 	rsb	r3, r3, #4
 80032d8:	613b      	str	r3, [r7, #16]
 80032da:	697b      	ldr	r3, [r7, #20]
 80032dc:	68fa      	ldr	r2, [r7, #12]
 80032de:	fa22 f303 	lsr.w	r3, r2, r3
 80032e2:	60fb      	str	r3, [r7, #12]
 80032e4:	687b      	ldr	r3, [r7, #4]
 80032e6:	785b      	ldrb	r3, [r3, #1]
 80032e8:	461a      	mov	r2, r3
 80032ea:	693b      	ldr	r3, [r7, #16]
 80032ec:	fa02 f303 	lsl.w	r3, r2, r3
 80032f0:	617b      	str	r3, [r7, #20]
 80032f2:	687b      	ldr	r3, [r7, #4]
 80032f4:	789b      	ldrb	r3, [r3, #2]
 80032f6:	461a      	mov	r2, r3
 80032f8:	68fb      	ldr	r3, [r7, #12]
 80032fa:	ea02 0303 	and.w	r3, r2, r3
 80032fe:	697a      	ldr	r2, [r7, #20]
 8003300:	ea42 0303 	orr.w	r3, r2, r3
 8003304:	617b      	str	r3, [r7, #20]
 8003306:	697b      	ldr	r3, [r7, #20]
 8003308:	ea4f 1303 	mov.w	r3, r3, lsl #4
 800330c:	617b      	str	r3, [r7, #20]
 800330e:	f44f 4361 	mov.w	r3, #57600	; 0xe100
 8003312:	f2ce 0300 	movt	r3, #57344	; 0xe000
 8003316:	687a      	ldr	r2, [r7, #4]
 8003318:	7812      	ldrb	r2, [r2, #0]
 800331a:	4611      	mov	r1, r2
 800331c:	697a      	ldr	r2, [r7, #20]
 800331e:	b2d2      	uxtb	r2, r2
 8003320:	185b      	adds	r3, r3, r1
 8003322:	f883 2300 	strb.w	r2, [r3, #768]	; 0x300
 8003326:	f44f 4361 	mov.w	r3, #57600	; 0xe100
 800332a:	f2ce 0300 	movt	r3, #57344	; 0xe000
 800332e:	687a      	ldr	r2, [r7, #4]
 8003330:	7812      	ldrb	r2, [r2, #0]
 8003332:	ea4f 1252 	mov.w	r2, r2, lsr #5
 8003336:	b2d2      	uxtb	r2, r2
 8003338:	6879      	ldr	r1, [r7, #4]
 800333a:	7809      	ldrb	r1, [r1, #0]
 800333c:	f001 011f 	and.w	r1, r1, #31
 8003340:	f04f 0001 	mov.w	r0, #1
 8003344:	fa00 f101 	lsl.w	r1, r0, r1
 8003348:	f843 1022 	str.w	r1, [r3, r2, lsl #2]
 800334c:	e014      	b.n	8003378 <NVIC_Init+0xe0>
 800334e:	f44f 4361 	mov.w	r3, #57600	; 0xe100
 8003352:	f2ce 0300 	movt	r3, #57344	; 0xe000
 8003356:	687a      	ldr	r2, [r7, #4]
 8003358:	7812      	ldrb	r2, [r2, #0]
 800335a:	ea4f 1252 	mov.w	r2, r2, lsr #5
 800335e:	b2d2      	uxtb	r2, r2
 8003360:	6879      	ldr	r1, [r7, #4]
 8003362:	7809      	ldrb	r1, [r1, #0]
 8003364:	f001 011f 	and.w	r1, r1, #31
 8003368:	f04f 0001 	mov.w	r0, #1
 800336c:	fa00 f101 	lsl.w	r1, r0, r1
 8003370:	f102 0220 	add.w	r2, r2, #32
 8003374:	f843 1022 	str.w	r1, [r3, r2, lsl #2]
 8003378:	f107 071c 	add.w	r7, r7, #28
 800337c:	46bd      	mov	sp, r7
 800337e:	bc80      	pop	{r7}
 8003380:	4770      	bx	lr
 8003382:	bf00      	nop

08003384 <pvPortMalloc>:
 8003384:	b580      	push	{r7, lr}
 8003386:	b08a      	sub	sp, #40	; 0x28
 8003388:	af00      	add	r7, sp, #0
 800338a:	6078      	str	r0, [r7, #4]
 800338c:	f04f 0300 	mov.w	r3, #0
 8003390:	61fb      	str	r3, [r7, #28]
 8003392:	f7fe fc4d 	bl	8001c30 <vTaskSuspendAll>
 8003396:	f241 2390 	movw	r3, #4752	; 0x1290
 800339a:	f2c2 0300 	movt	r3, #8192	; 0x2000
 800339e:	681b      	ldr	r3, [r3, #0]
 80033a0:	2b00      	cmp	r3, #0
 80033a2:	d133      	bne.n	800340c <pvPortMalloc+0x88>
 80033a4:	f240 2280 	movw	r2, #640	; 0x280
 80033a8:	f2c2 0200 	movt	r2, #8192	; 0x2000
 80033ac:	f241 2380 	movw	r3, #4736	; 0x1280
 80033b0:	f2c2 0300 	movt	r3, #8192	; 0x2000
 80033b4:	601a      	str	r2, [r3, #0]
 80033b6:	f241 2380 	movw	r3, #4736	; 0x1280
 80033ba:	f2c2 0300 	movt	r3, #8192	; 0x2000
 80033be:	f04f 0200 	mov.w	r2, #0
 80033c2:	605a      	str	r2, [r3, #4]
 80033c4:	f241 2388 	movw	r3, #4744	; 0x1288
 80033c8:	f2c2 0300 	movt	r3, #8192	; 0x2000
 80033cc:	f44f 5280 	mov.w	r2, #4096	; 0x1000
 80033d0:	605a      	str	r2, [r3, #4]
 80033d2:	f241 2388 	movw	r3, #4744	; 0x1288
 80033d6:	f2c2 0300 	movt	r3, #8192	; 0x2000
 80033da:	f04f 0200 	mov.w	r2, #0
 80033de:	601a      	str	r2, [r3, #0]
 80033e0:	f240 2380 	movw	r3, #640	; 0x280
 80033e4:	f2c2 0300 	movt	r3, #8192	; 0x2000
 80033e8:	617b      	str	r3, [r7, #20]
 80033ea:	697b      	ldr	r3, [r7, #20]
 80033ec:	f44f 5280 	mov.w	r2, #4096	; 0x1000
 80033f0:	605a      	str	r2, [r3, #4]
 80033f2:	697a      	ldr	r2, [r7, #20]
 80033f4:	f241 2388 	movw	r3, #4744	; 0x1288
 80033f8:	f2c2 0300 	movt	r3, #8192	; 0x2000
 80033fc:	6013      	str	r3, [r2, #0]
 80033fe:	f241 2390 	movw	r3, #4752	; 0x1290
 8003402:	f2c2 0300 	movt	r3, #8192	; 0x2000
 8003406:	f04f 0201 	mov.w	r2, #1
 800340a:	601a      	str	r2, [r3, #0]
 800340c:	687b      	ldr	r3, [r7, #4]
 800340e:	2b00      	cmp	r3, #0
 8003410:	d012      	beq.n	8003438 <pvPortMalloc+0xb4>
 8003412:	f643 0344 	movw	r3, #14404	; 0x3844
 8003416:	f6c0 0300 	movt	r3, #2048	; 0x800
 800341a:	881b      	ldrh	r3, [r3, #0]
 800341c:	687a      	ldr	r2, [r7, #4]
 800341e:	18d3      	adds	r3, r2, r3
 8003420:	607b      	str	r3, [r7, #4]
 8003422:	687b      	ldr	r3, [r7, #4]
 8003424:	f003 0307 	and.w	r3, r3, #7
 8003428:	2b00      	cmp	r3, #0
 800342a:	d005      	beq.n	8003438 <pvPortMalloc+0xb4>
 800342c:	687b      	ldr	r3, [r7, #4]
 800342e:	f023 0307 	bic.w	r3, r3, #7
 8003432:	f103 0308 	add.w	r3, r3, #8
 8003436:	607b      	str	r3, [r7, #4]
 8003438:	687b      	ldr	r3, [r7, #4]
 800343a:	2b00      	cmp	r3, #0
 800343c:	d072      	beq.n	8003524 <pvPortMalloc+0x1a0>
 800343e:	687a      	ldr	r2, [r7, #4]
 8003440:	f640 73ff 	movw	r3, #4095	; 0xfff
 8003444:	429a      	cmp	r2, r3
 8003446:	d86d      	bhi.n	8003524 <pvPortMalloc+0x1a0>
 8003448:	f241 2380 	movw	r3, #4736	; 0x1280
 800344c:	f2c2 0300 	movt	r3, #8192	; 0x2000
 8003450:	623b      	str	r3, [r7, #32]
 8003452:	f241 2380 	movw	r3, #4736	; 0x1280
 8003456:	f2c2 0300 	movt	r3, #8192	; 0x2000
 800345a:	681b      	ldr	r3, [r3, #0]
 800345c:	627b      	str	r3, [r7, #36]	; 0x24
 800345e:	e004      	b.n	800346a <pvPortMalloc+0xe6>
 8003460:	6a7b      	ldr	r3, [r7, #36]	; 0x24
 8003462:	623b      	str	r3, [r7, #32]
 8003464:	6a7b      	ldr	r3, [r7, #36]	; 0x24
 8003466:	681b      	ldr	r3, [r3, #0]
 8003468:	627b      	str	r3, [r7, #36]	; 0x24
 800346a:	6a7b      	ldr	r3, [r7, #36]	; 0x24
 800346c:	685a      	ldr	r2, [r3, #4]
 800346e:	687b      	ldr	r3, [r7, #4]
 8003470:	429a      	cmp	r2, r3
 8003472:	d203      	bcs.n	800347c <pvPortMalloc+0xf8>
 8003474:	6a7b      	ldr	r3, [r7, #36]	; 0x24
 8003476:	681b      	ldr	r3, [r3, #0]
 8003478:	2b00      	cmp	r3, #0
 800347a:	d1f1      	bne.n	8003460 <pvPortMalloc+0xdc>
 800347c:	6a7a      	ldr	r2, [r7, #36]	; 0x24
 800347e:	f241 2388 	movw	r3, #4744	; 0x1288
 8003482:	f2c2 0300 	movt	r3, #8192	; 0x2000
 8003486:	429a      	cmp	r2, r3
 8003488:	d04c      	beq.n	8003524 <pvPortMalloc+0x1a0>
 800348a:	6a3b      	ldr	r3, [r7, #32]
 800348c:	681a      	ldr	r2, [r3, #0]
 800348e:	f643 0344 	movw	r3, #14404	; 0x3844
 8003492:	f6c0 0300 	movt	r3, #2048	; 0x800
 8003496:	881b      	ldrh	r3, [r3, #0]
 8003498:	18d3      	adds	r3, r2, r3
 800349a:	61fb      	str	r3, [r7, #28]
 800349c:	6a7b      	ldr	r3, [r7, #36]	; 0x24
 800349e:	681a      	ldr	r2, [r3, #0]
 80034a0:	6a3b      	ldr	r3, [r7, #32]
 80034a2:	601a      	str	r2, [r3, #0]
 80034a4:	6a7b      	ldr	r3, [r7, #36]	; 0x24
 80034a6:	685a      	ldr	r2, [r3, #4]
 80034a8:	687b      	ldr	r3, [r7, #4]
 80034aa:	1ad2      	subs	r2, r2, r3
 80034ac:	f643 0344 	movw	r3, #14404	; 0x3844
 80034b0:	f6c0 0300 	movt	r3, #2048	; 0x800
 80034b4:	881b      	ldrh	r3, [r3, #0]
 80034b6:	ea4f 0343 	mov.w	r3, r3, lsl #1
 80034ba:	429a      	cmp	r2, r3
 80034bc:	d925      	bls.n	800350a <pvPortMalloc+0x186>
 80034be:	6a7a      	ldr	r2, [r7, #36]	; 0x24
 80034c0:	687b      	ldr	r3, [r7, #4]
 80034c2:	18d3      	adds	r3, r2, r3
 80034c4:	613b      	str	r3, [r7, #16]
 80034c6:	6a7b      	ldr	r3, [r7, #36]	; 0x24
 80034c8:	685a      	ldr	r2, [r3, #4]
 80034ca:	687b      	ldr	r3, [r7, #4]
 80034cc:	1ad2      	subs	r2, r2, r3
 80034ce:	693b      	ldr	r3, [r7, #16]
 80034d0:	605a      	str	r2, [r3, #4]
 80034d2:	6a7b      	ldr	r3, [r7, #36]	; 0x24
 80034d4:	687a      	ldr	r2, [r7, #4]
 80034d6:	605a      	str	r2, [r3, #4]
 80034d8:	693b      	ldr	r3, [r7, #16]
 80034da:	685b      	ldr	r3, [r3, #4]
 80034dc:	60fb      	str	r3, [r7, #12]
 80034de:	f241 2380 	movw	r3, #4736	; 0x1280
 80034e2:	f2c2 0300 	movt	r3, #8192	; 0x2000
 80034e6:	61bb      	str	r3, [r7, #24]
 80034e8:	e002      	b.n	80034f0 <pvPortMalloc+0x16c>
 80034ea:	69bb      	ldr	r3, [r7, #24]
 80034ec:	681b      	ldr	r3, [r3, #0]
 80034ee:	61bb      	str	r3, [r7, #24]
 80034f0:	69bb      	ldr	r3, [r7, #24]
 80034f2:	681b      	ldr	r3, [r3, #0]
 80034f4:	685a      	ldr	r2, [r3, #4]
 80034f6:	68fb      	ldr	r3, [r7, #12]
 80034f8:	429a      	cmp	r2, r3
 80034fa:	d3f6      	bcc.n	80034ea <pvPortMalloc+0x166>
 80034fc:	69bb      	ldr	r3, [r7, #24]
 80034fe:	681a      	ldr	r2, [r3, #0]
 8003500:	693b      	ldr	r3, [r7, #16]
 8003502:	601a      	str	r2, [r3, #0]
 8003504:	69bb      	ldr	r3, [r7, #24]
 8003506:	693a      	ldr	r2, [r7, #16]
 8003508:	601a      	str	r2, [r3, #0]
 800350a:	f240 0364 	movw	r3, #100	; 0x64
 800350e:	f2c2 0300 	movt	r3, #8192	; 0x2000
 8003512:	681a      	ldr	r2, [r3, #0]
 8003514:	6a7b      	ldr	r3, [r7, #36]	; 0x24
 8003516:	685b      	ldr	r3, [r3, #4]
 8003518:	1ad2      	subs	r2, r2, r3
 800351a:	f240 0364 	movw	r3, #100	; 0x64
 800351e:	f2c2 0300 	movt	r3, #8192	; 0x2000
 8003522:	601a      	str	r2, [r3, #0]
 8003524:	f7fe fb96 	bl	8001c54 <xTaskResumeAll>
 8003528:	69fb      	ldr	r3, [r7, #28]
 800352a:	4618      	mov	r0, r3
 800352c:	f107 0728 	add.w	r7, r7, #40	; 0x28
 8003530:	46bd      	mov	sp, r7
 8003532:	bd80      	pop	{r7, pc}

08003534 <vPortFree>:
 8003534:	b580      	push	{r7, lr}
 8003536:	b086      	sub	sp, #24
 8003538:	af00      	add	r7, sp, #0
 800353a:	6078      	str	r0, [r7, #4]
 800353c:	687b      	ldr	r3, [r7, #4]
 800353e:	613b      	str	r3, [r7, #16]
 8003540:	687b      	ldr	r3, [r7, #4]
 8003542:	2b00      	cmp	r3, #0
 8003544:	d035      	beq.n	80035b2 <vPortFree+0x7e>
 8003546:	f643 0344 	movw	r3, #14404	; 0x3844
 800354a:	f6c0 0300 	movt	r3, #2048	; 0x800
 800354e:	881b      	ldrh	r3, [r3, #0]
 8003550:	f1c3 0300 	rsb	r3, r3, #0
 8003554:	693a      	ldr	r2, [r7, #16]
 8003556:	18d3      	adds	r3, r2, r3
 8003558:	613b      	str	r3, [r7, #16]
 800355a:	693b      	ldr	r3, [r7, #16]
 800355c:	60fb      	str	r3, [r7, #12]
 800355e:	f7fe fb67 	bl	8001c30 <vTaskSuspendAll>
 8003562:	68fb      	ldr	r3, [r7, #12]
 8003564:	685b      	ldr	r3, [r3, #4]
 8003566:	60bb      	str	r3, [r7, #8]
 8003568:	f241 2380 	movw	r3, #4736	; 0x1280
 800356c:	f2c2 0300 	movt	r3, #8192	; 0x2000
 8003570:	617b      	str	r3, [r7, #20]
 8003572:	e002      	b.n	800357a <vPortFree+0x46>
 8003574:	697b      	ldr	r3, [r7, #20]
 8003576:	681b      	ldr	r3, [r3, #0]
 8003578:	617b      	str	r3, [r7, #20]
 800357a:	697b      	ldr	r3, [r7, #20]
 800357c:	681b      	ldr	r3, [r3, #0]
 800357e:	685a      	ldr	r2, [r3, #4]
 8003580:	68bb      	ldr	r3, [r7, #8]
 8003582:	429a      	cmp	r2, r3
 8003584:	d3f6      	bcc.n	8003574 <vPortFree+0x40>
 8003586:	697b      	ldr	r3, [r7, #20]
 8003588:	681a      	ldr	r2, [r3, #0]
 800358a:	68fb      	ldr	r3, [r7, #12]
 800358c:	601a      	str	r2, [r3, #0]
 800358e:	697b      	ldr	r3, [r7, #20]
 8003590:	68fa      	ldr	r2, [r7, #12]
 8003592:	601a      	str	r2, [r3, #0]
 8003594:	68fb      	ldr	r3, [r7, #12]
 8003596:	685a      	ldr	r2, [r3, #4]
 8003598:	f240 0364 	movw	r3, #100	; 0x64
 800359c:	f2c2 0300 	movt	r3, #8192	; 0x2000
 80035a0:	681b      	ldr	r3, [r3, #0]
 80035a2:	18d2      	adds	r2, r2, r3
 80035a4:	f240 0364 	movw	r3, #100	; 0x64
 80035a8:	f2c2 0300 	movt	r3, #8192	; 0x2000
 80035ac:	601a      	str	r2, [r3, #0]
 80035ae:	f7fe fb51 	bl	8001c54 <xTaskResumeAll>
 80035b2:	f107 0718 	add.w	r7, r7, #24
 80035b6:	46bd      	mov	sp, r7
 80035b8:	bd80      	pop	{r7, pc}
 80035ba:	bf00      	nop

080035bc <memcpy>:
 80035bc:	2a03      	cmp	r2, #3
 80035be:	e92d 01f0 	stmdb	sp!, {r4, r5, r6, r7, r8}
 80035c2:	d809      	bhi.n	80035d8 <memcpy+0x1c>
 80035c4:	b12a      	cbz	r2, 80035d2 <memcpy+0x16>
 80035c6:	2300      	movs	r3, #0
 80035c8:	5ccc      	ldrb	r4, [r1, r3]
 80035ca:	54c4      	strb	r4, [r0, r3]
 80035cc:	3301      	adds	r3, #1
 80035ce:	4293      	cmp	r3, r2
 80035d0:	d1fa      	bne.n	80035c8 <memcpy+0xc>
 80035d2:	e8bd 01f0 	ldmia.w	sp!, {r4, r5, r6, r7, r8}
 80035d6:	4770      	bx	lr
 80035d8:	460b      	mov	r3, r1
 80035da:	1882      	adds	r2, r0, r2
 80035dc:	4601      	mov	r1, r0
 80035de:	e003      	b.n	80035e8 <memcpy+0x2c>
 80035e0:	7824      	ldrb	r4, [r4, #0]
 80035e2:	3301      	adds	r3, #1
 80035e4:	f801 4b01 	strb.w	r4, [r1], #1
 80035e8:	f011 0f03 	tst.w	r1, #3
 80035ec:	461c      	mov	r4, r3
 80035ee:	d1f7      	bne.n	80035e0 <memcpy+0x24>
 80035f0:	f013 0503 	ands.w	r5, r3, #3
 80035f4:	d05d      	beq.n	80036b2 <memcpy+0xf6>
 80035f6:	426e      	negs	r6, r5
 80035f8:	f1c5 0c04 	rsb	ip, r5, #4
 80035fc:	00ed      	lsls	r5, r5, #3
 80035fe:	599b      	ldr	r3, [r3, r6]
 8003600:	ea4f 0ccc 	mov.w	ip, ip, lsl #3
 8003604:	e008      	b.n	8003618 <memcpy+0x5c>
 8003606:	3404      	adds	r4, #4
 8003608:	59a7      	ldr	r7, [r4, r6]
 800360a:	463b      	mov	r3, r7
 800360c:	fa07 f70c 	lsl.w	r7, r7, ip
 8003610:	ea48 0707 	orr.w	r7, r8, r7
 8003614:	f841 7b04 	str.w	r7, [r1], #4
 8003618:	1a57      	subs	r7, r2, r1
 800361a:	fa23 f805 	lsr.w	r8, r3, r5
 800361e:	2f03      	cmp	r7, #3
 8003620:	dcf1      	bgt.n	8003606 <memcpy+0x4a>
 8003622:	e003      	b.n	800362c <memcpy+0x70>
 8003624:	f814 3b01 	ldrb.w	r3, [r4], #1
 8003628:	f801 3b01 	strb.w	r3, [r1], #1
 800362c:	428a      	cmp	r2, r1
 800362e:	d8f9      	bhi.n	8003624 <memcpy+0x68>
 8003630:	e7cf      	b.n	80035d2 <memcpy+0x16>
 8003632:	f853 4c40 	ldr.w	r4, [r3, #-64]
 8003636:	f841 4c40 	str.w	r4, [r1, #-64]
 800363a:	f853 4c3c 	ldr.w	r4, [r3, #-60]
 800363e:	f841 4c3c 	str.w	r4, [r1, #-60]
 8003642:	f853 4c38 	ldr.w	r4, [r3, #-56]
 8003646:	f841 4c38 	str.w	r4, [r1, #-56]
 800364a:	f853 4c34 	ldr.w	r4, [r3, #-52]
 800364e:	f841 4c34 	str.w	r4, [r1, #-52]
 8003652:	f853 4c30 	ldr.w	r4, [r3, #-48]
 8003656:	f841 4c30 	str.w	r4, [r1, #-48]
 800365a:	f853 4c2c 	ldr.w	r4, [r3, #-44]
 800365e:	f841 4c2c 	str.w	r4, [r1, #-44]
 8003662:	f853 4c28 	ldr.w	r4, [r3, #-40]
 8003666:	f841 4c28 	str.w	r4, [r1, #-40]
 800366a:	f853 4c24 	ldr.w	r4, [r3, #-36]
 800366e:	f841 4c24 	str.w	r4, [r1, #-36]
 8003672:	f853 4c20 	ldr.w	r4, [r3, #-32]
 8003676:	f841 4c20 	str.w	r4, [r1, #-32]
 800367a:	f853 4c1c 	ldr.w	r4, [r3, #-28]
 800367e:	f841 4c1c 	str.w	r4, [r1, #-28]
 8003682:	f853 4c18 	ldr.w	r4, [r3, #-24]
 8003686:	f841 4c18 	str.w	r4, [r1, #-24]
 800368a:	f853 4c14 	ldr.w	r4, [r3, #-20]
 800368e:	f841 4c14 	str.w	r4, [r1, #-20]
 8003692:	f853 4c10 	ldr.w	r4, [r3, #-16]
 8003696:	f841 4c10 	str.w	r4, [r1, #-16]
 800369a:	f853 4c0c 	ldr.w	r4, [r3, #-12]
 800369e:	f841 4c0c 	str.w	r4, [r1, #-12]
 80036a2:	f853 4c08 	ldr.w	r4, [r3, #-8]
 80036a6:	f841 4c08 	str.w	r4, [r1, #-8]
 80036aa:	f853 4c04 	ldr.w	r4, [r3, #-4]
 80036ae:	f841 4c04 	str.w	r4, [r1, #-4]
 80036b2:	1a56      	subs	r6, r2, r1
 80036b4:	461d      	mov	r5, r3
 80036b6:	460c      	mov	r4, r1
 80036b8:	3340      	adds	r3, #64	; 0x40
 80036ba:	3140      	adds	r1, #64	; 0x40
 80036bc:	2e3f      	cmp	r6, #63	; 0x3f
 80036be:	dcb8      	bgt.n	8003632 <memcpy+0x76>
 80036c0:	462b      	mov	r3, r5
 80036c2:	e00f      	b.n	80036e4 <memcpy+0x128>
 80036c4:	f853 1c10 	ldr.w	r1, [r3, #-16]
 80036c8:	f844 1c10 	str.w	r1, [r4, #-16]
 80036cc:	f853 1c0c 	ldr.w	r1, [r3, #-12]
 80036d0:	f844 1c0c 	str.w	r1, [r4, #-12]
 80036d4:	f853 1c08 	ldr.w	r1, [r3, #-8]
 80036d8:	f844 1c08 	str.w	r1, [r4, #-8]
 80036dc:	f853 1c04 	ldr.w	r1, [r3, #-4]
 80036e0:	f844 1c04 	str.w	r1, [r4, #-4]
 80036e4:	1b16      	subs	r6, r2, r4
 80036e6:	461d      	mov	r5, r3
 80036e8:	3310      	adds	r3, #16
 80036ea:	2e0f      	cmp	r6, #15
 80036ec:	4621      	mov	r1, r4
 80036ee:	f104 0410 	add.w	r4, r4, #16
 80036f2:	dce7      	bgt.n	80036c4 <memcpy+0x108>
 80036f4:	462b      	mov	r3, r5
 80036f6:	e002      	b.n	80036fe <memcpy+0x142>
 80036f8:	6824      	ldr	r4, [r4, #0]
 80036fa:	f841 4b04 	str.w	r4, [r1], #4
 80036fe:	1a55      	subs	r5, r2, r1
 8003700:	461c      	mov	r4, r3
 8003702:	2d03      	cmp	r5, #3
 8003704:	f103 0304 	add.w	r3, r3, #4
 8003708:	dcf6      	bgt.n	80036f8 <memcpy+0x13c>
 800370a:	e78f      	b.n	800362c <memcpy+0x70>

0800370c <memset>:
 800370c:	2a03      	cmp	r2, #3
 800370e:	b2c9      	uxtb	r1, r1
 8003710:	b470      	push	{r4, r5, r6}
 8003712:	d808      	bhi.n	8003726 <memset+0x1a>
 8003714:	b12a      	cbz	r2, 8003722 <memset+0x16>
 8003716:	4603      	mov	r3, r0
 8003718:	1812      	adds	r2, r2, r0
 800371a:	f803 1b01 	strb.w	r1, [r3], #1
 800371e:	4293      	cmp	r3, r2
 8003720:	d1fb      	bne.n	800371a <memset+0xe>
 8003722:	bc70      	pop	{r4, r5, r6}
 8003724:	4770      	bx	lr
 8003726:	1882      	adds	r2, r0, r2
 8003728:	4604      	mov	r4, r0
 800372a:	e001      	b.n	8003730 <memset+0x24>
 800372c:	f804 1b01 	strb.w	r1, [r4], #1
 8003730:	f014 0f03 	tst.w	r4, #3
 8003734:	d1fa      	bne.n	800372c <memset+0x20>
 8003736:	f04f 3301 	mov.w	r3, #16843009	; 0x1010101
 800373a:	fb03 f301 	mul.w	r3, r3, r1
 800373e:	e01f      	b.n	8003780 <memset+0x74>
 8003740:	f844 3c40 	str.w	r3, [r4, #-64]
 8003744:	f844 3c3c 	str.w	r3, [r4, #-60]
 8003748:	f844 3c38 	str.w	r3, [r4, #-56]
 800374c:	f844 3c34 	str.w	r3, [r4, #-52]
 8003750:	f844 3c30 	str.w	r3, [r4, #-48]
 8003754:	f844 3c2c 	str.w	r3, [r4, #-44]
 8003758:	f844 3c28 	str.w	r3, [r4, #-40]
 800375c:	f844 3c24 	str.w	r3, [r4, #-36]
 8003760:	f844 3c20 	str.w	r3, [r4, #-32]
 8003764:	f844 3c1c 	str.w	r3, [r4, #-28]
 8003768:	f844 3c18 	str.w	r3, [r4, #-24]
 800376c:	f844 3c14 	str.w	r3, [r4, #-20]
 8003770:	f844 3c10 	str.w	r3, [r4, #-16]
 8003774:	f844 3c0c 	str.w	r3, [r4, #-12]
 8003778:	f844 3c08 	str.w	r3, [r4, #-8]
 800377c:	f844 3c04 	str.w	r3, [r4, #-4]
 8003780:	1b16      	subs	r6, r2, r4
 8003782:	4625      	mov	r5, r4
 8003784:	3440      	adds	r4, #64	; 0x40
 8003786:	2e3f      	cmp	r6, #63	; 0x3f
 8003788:	dcda      	bgt.n	8003740 <memset+0x34>
 800378a:	462c      	mov	r4, r5
 800378c:	e007      	b.n	800379e <memset+0x92>
 800378e:	f844 3c10 	str.w	r3, [r4, #-16]
 8003792:	f844 3c0c 	str.w	r3, [r4, #-12]
 8003796:	f844 3c08 	str.w	r3, [r4, #-8]
 800379a:	f844 3c04 	str.w	r3, [r4, #-4]
 800379e:	1b16      	subs	r6, r2, r4
 80037a0:	4625      	mov	r5, r4
 80037a2:	3410      	adds	r4, #16
 80037a4:	2e0f      	cmp	r6, #15
 80037a6:	dcf2      	bgt.n	800378e <memset+0x82>
 80037a8:	e001      	b.n	80037ae <memset+0xa2>
 80037aa:	f845 3b04 	str.w	r3, [r5], #4
 80037ae:	1b54      	subs	r4, r2, r5
 80037b0:	2c03      	cmp	r4, #3
 80037b2:	dcfa      	bgt.n	80037aa <memset+0x9e>
 80037b4:	e001      	b.n	80037ba <memset+0xae>
 80037b6:	f805 1b01 	strb.w	r1, [r5], #1
 80037ba:	4295      	cmp	r5, r2
 80037bc:	d3fb      	bcc.n	80037b6 <memset+0xaa>
 80037be:	e7b0      	b.n	8003722 <memset+0x16>

080037c0 <strncpy>:
 80037c0:	ea41 0300 	orr.w	r3, r1, r0
 80037c4:	f013 0f03 	tst.w	r3, #3
 80037c8:	4603      	mov	r3, r0
 80037ca:	b470      	push	{r4, r5, r6}
 80037cc:	bf14      	ite	ne
 80037ce:	2500      	movne	r5, #0
 80037d0:	2501      	moveq	r5, #1
 80037d2:	2a03      	cmp	r2, #3
 80037d4:	bf94      	ite	ls
 80037d6:	2500      	movls	r5, #0
 80037d8:	f005 0501 	andhi.w	r5, r5, #1
 80037dc:	460c      	mov	r4, r1
 80037de:	4606      	mov	r6, r0
 80037e0:	b9cd      	cbnz	r5, 8003816 <strncpy+0x56>
 80037e2:	b1b2      	cbz	r2, 8003812 <strncpy+0x52>
 80037e4:	780d      	ldrb	r5, [r1, #0]
 80037e6:	4634      	mov	r4, r6
 80037e8:	1e53      	subs	r3, r2, #1
 80037ea:	f804 5b01 	strb.w	r5, [r4], #1
 80037ee:	b155      	cbz	r5, 8003806 <strncpy+0x46>
 80037f0:	1cb2      	adds	r2, r6, #2
 80037f2:	b173      	cbz	r3, 8003812 <strncpy+0x52>
 80037f4:	f811 5f01 	ldrb.w	r5, [r1, #1]!
 80037f8:	4614      	mov	r4, r2
 80037fa:	3b01      	subs	r3, #1
 80037fc:	f802 5c01 	strb.w	r5, [r2, #-1]
 8003800:	3201      	adds	r2, #1
 8003802:	2d00      	cmp	r5, #0
 8003804:	d1f5      	bne.n	80037f2 <strncpy+0x32>
 8003806:	b123      	cbz	r3, 8003812 <strncpy+0x52>
 8003808:	2200      	movs	r2, #0
 800380a:	3b01      	subs	r3, #1
 800380c:	f804 2b01 	strb.w	r2, [r4], #1
 8003810:	d1fb      	bne.n	800380a <strncpy+0x4a>
 8003812:	bc70      	pop	{r4, r5, r6}
 8003814:	4770      	bx	lr
 8003816:	4621      	mov	r1, r4
 8003818:	f854 5b04 	ldr.w	r5, [r4], #4
 800381c:	f1a5 3601 	sub.w	r6, r5, #16843009	; 0x1010101
 8003820:	ea26 0605 	bic.w	r6, r6, r5
 8003824:	f016 3f80 	tst.w	r6, #2155905152	; 0x80808080
 8003828:	d105      	bne.n	8003836 <strncpy+0x76>
 800382a:	3a04      	subs	r2, #4
 800382c:	f843 5b04 	str.w	r5, [r3], #4
 8003830:	2a03      	cmp	r2, #3
 8003832:	4621      	mov	r1, r4
 8003834:	d8ef      	bhi.n	8003816 <strncpy+0x56>
 8003836:	461e      	mov	r6, r3
 8003838:	e7d3      	b.n	80037e2 <strncpy+0x22>
 800383a:	bf00      	nop
 800383c:	454c4449 	.word	0x454c4449
 8003840:	00000000 	.word	0x00000000

08003844 <heapSTRUCT_SIZE>:
 8003844:	00000010                                         ..
